

Microchip MPLAB XC8 Assembler V2.50 build 20240725155939 
                                                                                               Sat Dec 28 09:50:58 2024

Microchip MPLAB XC8 C Compiler v2.50 (Free license) build 20240725155939 Og1 
     1                           	processor	18F4580
     2                           	fnconf	rparam,??,?,0
     3                           	pagewidth 120
     4                           	opt	flic
     5                           	psect	idataCOMRAM,global,class=CODE,space=0,delta=1,noexec
     6                           	psect	cinit,global,reloc=2,class=CODE,space=0,delta=1
     7                           	psect	bssCOMRAM,global,class=COMRAM,space=1,delta=1,lowdata,noexec
     8                           	psect	dataCOMRAM,global,class=COMRAM,space=1,delta=1,lowdata,noexec
     9                           	psect	cstackCOMRAM,global,class=COMRAM,space=1,delta=1,lowdata,noexec
    10                           	psect	text0,global,reloc=2,class=CODE,space=0,delta=1
    11                           	psect	text1,global,reloc=2,class=CODE,space=0,delta=1
    12                           	psect	text2,global,reloc=2,class=CODE,space=0,delta=1
    13                           	psect	text3,global,reloc=2,class=CODE,space=0,delta=1,group=1
    14                           	psect	text4,global,reloc=2,class=CODE,space=0,delta=1,group=1
    15                           	psect	smallconst,global,reloc=2,class=SMALLCONST,space=0,delta=1,noexec
    16                           	psect	intsave_regs,global,class=BIGRAM,space=1,delta=1,noexec
    17                           	psect	rparam,global,class=COMRAM,space=1,delta=1,noexec
    18                           	psect	idloc,global,abs,ovrld,class=IDLOC,space=5,delta=1,noexec
    19                           	psect	config,global,abs,ovrld,class=CONFIG,space=4,delta=1,noexec
    20   000000                     
    21                           ; Version 2.20
    22                           ; Generated 12/02/2020 GMT
    23                           ; 
    24                           ; Copyright © 2020, Microchip Technology Inc. and its subsidiaries ("Microchip")
    25                           ; All rights reserved.
    26                           ; 
    27                           ; This software is developed by Microchip Technology Inc. and its subsidiaries ("Microch
      +                          ip").
    28                           ; 
    29                           ; Redistribution and use in source and binary forms, with or without modification, are
    30                           ; permitted provided that the following conditions are met:
    31                           ; 
    32                           ;     1. Redistributions of source code must retain the above copyright notice, this lis
      +                          t of
    33                           ;        conditions and the following disclaimer.
    34                           ; 
    35                           ;     2. Redistributions in binary form must reproduce the above copyright notice, this 
      +                          list
    36                           ;        of conditions and the following disclaimer in the documentation and/or other
    37                           ;        materials provided with the distribution.
    38                           ; 
    39                           ;     3. Microchip's name may not be used to endorse or promote products derived from th
      +                          is
    40                           ;        software without specific prior written permission.
    41                           ; 
    42                           ; THIS SOFTWARE IS PROVIDED BY MICROCHIP "AS IS" AND ANY EXPRESS OR IMPLIED WARRANTIES,
    43                           ; INCLUDING, BUT NOT LIMITED TO, THE IMPLIED WARRANTIES OF MERCHANTABILITY AND FITNESS F
      +                          OR
    44                           ; PURPOSE ARE DISCLAIMED.  IN NO EVENT SHALL MICROCHIP BE LIABLE FOR ANY DIRECT, INDIREC
      +                          T,
    45                           ; INCIDENTAL, SPECIAL, EXEMPLARY, OR CONSEQUENTIAL DAMAGES (INCLUDING BUT NOT LIMITED TO
    46                           ; PROCUREMENT OF SUBSTITUTE GOODS OR SERVICES; LOSS OF USE, DATA OR PROFITS; OR BUSINESS
    47                           ; INTERRUPTION) HOWSOEVER CAUSED AND ON ANY THEORY OF LIABILITY, WHETHER IN CONTRACT, ST
      +                          RICT
    48                           ; LIABILITY, OR TORT (INCLUDING NEGLIGENCE OR OTHERWISE) ARISING IN ANY WAY OUT OF THE U
      +                          SE OF
    49                           ; THIS SOFTWARE, EVEN IF ADVISED OF THE POSSIBILITY OF SUCH DAMAGE.
    50                           ; 
    51                           ; 
    52                           ; Code-generator required, PIC18F4580 Definitions
    53                           ; 
    54                           ; SFR Addresses
    55   000FE0                     bsr             equ	4064
    56   000FE9                     fsr0            equ	4073
    57   000FEA                     fsr0h           equ	4074
    58   000FE9                     fsr0l           equ	4073
    59   000FE1                     fsr1            equ	4065
    60   000FE2                     fsr1h           equ	4066
    61   000FE1                     fsr1l           equ	4065
    62   000FD9                     fsr2            equ	4057
    63   000FDA                     fsr2h           equ	4058
    64   000FD9                     fsr2l           equ	4057
    65   000FEF                     indf0           equ	4079
    66   000FE7                     indf1           equ	4071
    67   000FDF                     indf2           equ	4063
    68   000FF2                     intcon          equ	4082
    69   000000                     nvmcon          equ	0
    70   000FF9                     pcl             equ	4089
    71   000FFA                     pclath          equ	4090
    72   000FFB                     pclatu          equ	4091
    73   000FEB                     plusw0          equ	4075
    74   000FE3                     plusw1          equ	4067
    75   000FDB                     plusw2          equ	4059
    76   000FED                     postdec0        equ	4077
    77   000FE5                     postdec1        equ	4069
    78   000FDD                     postdec2        equ	4061
    79   000FEE                     postinc0        equ	4078
    80   000FE6                     postinc1        equ	4070
    81   000FDE                     postinc2        equ	4062
    82   000FEC                     preinc0         equ	4076
    83   000FE4                     preinc1         equ	4068
    84   000FDC                     preinc2         equ	4060
    85   000FF3                     prod            equ	4083
    86   000FF4                     prodh           equ	4084
    87   000FF3                     prodl           equ	4083
    88   000FD8                     status          equ	4056
    89   000FF5                     tablat          equ	4085
    90   000FF6                     tblptr          equ	4086
    91   000FF7                     tblptrh         equ	4087
    92   000FF6                     tblptrl         equ	4086
    93   000FF8                     tblptru         equ	4088
    94   000FFD                     tosl            equ	4093
    95   000FE8                     wreg            equ	4072
    96   000D60                     RXF6SIDH        equ	3424	;# 
    97   000D61                     RXF6SIDL        equ	3425	;# 
    98   000D62                     RXF6EIDH        equ	3426	;# 
    99   000D63                     RXF6EIDL        equ	3427	;# 
   100   000D64                     RXF7SIDH        equ	3428	;# 
   101   000D65                     RXF7SIDL        equ	3429	;# 
   102   000D66                     RXF7EIDH        equ	3430	;# 
   103   000D67                     RXF7EIDL        equ	3431	;# 
   104   000D68                     RXF8SIDH        equ	3432	;# 
   105   000D69                     RXF8SIDL        equ	3433	;# 
   106   000D6A                     RXF8EIDH        equ	3434	;# 
   107   000D6B                     RXF8EIDL        equ	3435	;# 
   108   000D70                     RXF9SIDH        equ	3440	;# 
   109   000D71                     RXF9SIDL        equ	3441	;# 
   110   000D72                     RXF9EIDH        equ	3442	;# 
   111   000D73                     RXF9EIDL        equ	3443	;# 
   112   000D74                     RXF10SIDH       equ	3444	;# 
   113   000D75                     RXF10SIDL       equ	3445	;# 
   114   000D76                     RXF10EIDH       equ	3446	;# 
   115   000D77                     RXF10EIDL       equ	3447	;# 
   116   000D78                     RXF11SIDH       equ	3448	;# 
   117   000D79                     RXF11SIDL       equ	3449	;# 
   118   000D7A                     RXF11EIDH       equ	3450	;# 
   119   000D7B                     RXF11EIDL       equ	3451	;# 
   120   000D80                     RXF12SIDH       equ	3456	;# 
   121   000D81                     RXF12SIDL       equ	3457	;# 
   122   000D82                     RXF12EIDH       equ	3458	;# 
   123   000D83                     RXF12EIDL       equ	3459	;# 
   124   000D84                     RXF13SIDH       equ	3460	;# 
   125   000D85                     RXF13SIDL       equ	3461	;# 
   126   000D86                     RXF13EIDH       equ	3462	;# 
   127   000D87                     RXF13EIDL       equ	3463	;# 
   128   000D88                     RXF14SIDH       equ	3464	;# 
   129   000D89                     RXF14SIDL       equ	3465	;# 
   130   000D8A                     RXF14EIDH       equ	3466	;# 
   131   000D8B                     RXF14EIDL       equ	3467	;# 
   132   000D90                     RXF15SIDH       equ	3472	;# 
   133   000D91                     RXF15SIDL       equ	3473	;# 
   134   000D92                     RXF15EIDH       equ	3474	;# 
   135   000D93                     RXF15EIDL       equ	3475	;# 
   136   000DD4                     RXFCON0         equ	3540	;# 
   137   000DD5                     RXFCON1         equ	3541	;# 
   138   000DD8                     SDFLC           equ	3544	;# 
   139   000DE0                     RXFBCON0        equ	3552	;# 
   140   000DE1                     RXFBCON1        equ	3553	;# 
   141   000DE2                     RXFBCON2        equ	3554	;# 
   142   000DE3                     RXFBCON3        equ	3555	;# 
   143   000DE4                     RXFBCON4        equ	3556	;# 
   144   000DE5                     RXFBCON5        equ	3557	;# 
   145   000DE6                     RXFBCON6        equ	3558	;# 
   146   000DE7                     RXFBCON7        equ	3559	;# 
   147   000DF0                     MSEL0           equ	3568	;# 
   148   000DF1                     MSEL1           equ	3569	;# 
   149   000DF2                     MSEL2           equ	3570	;# 
   150   000DF3                     MSEL3           equ	3571	;# 
   151   000DF8                     BSEL0           equ	3576	;# 
   152   000DFA                     BIE0            equ	3578	;# 
   153   000DFC                     TXBIE           equ	3580	;# 
   154   000E20                     B0CON           equ	3616	;# 
   155   000E21                     B0SIDH          equ	3617	;# 
   156   000E22                     B0SIDL          equ	3618	;# 
   157   000E23                     B0EIDH          equ	3619	;# 
   158   000E24                     B0EIDL          equ	3620	;# 
   159   000E25                     B0DLC           equ	3621	;# 
   160   000E26                     B0D0            equ	3622	;# 
   161   000E27                     B0D1            equ	3623	;# 
   162   000E28                     B0D2            equ	3624	;# 
   163   000E29                     B0D3            equ	3625	;# 
   164   000E2A                     B0D4            equ	3626	;# 
   165   000E2B                     B0D5            equ	3627	;# 
   166   000E2C                     B0D6            equ	3628	;# 
   167   000E2D                     B0D7            equ	3629	;# 
   168   000E2E                     CANSTAT_RO9     equ	3630	;# 
   169   000E2F                     CANCON_RO9      equ	3631	;# 
   170   000E30                     B1CON           equ	3632	;# 
   171   000E31                     B1SIDH          equ	3633	;# 
   172   000E32                     B1SIDL          equ	3634	;# 
   173   000E33                     B1EIDH          equ	3635	;# 
   174   000E34                     B1EIDL          equ	3636	;# 
   175   000E35                     B1DLC           equ	3637	;# 
   176   000E36                     B1D0            equ	3638	;# 
   177   000E37                     B1D1            equ	3639	;# 
   178   000E38                     B1D2            equ	3640	;# 
   179   000E39                     B1D3            equ	3641	;# 
   180   000E3A                     B1D4            equ	3642	;# 
   181   000E3B                     B1D5            equ	3643	;# 
   182   000E3C                     B1D6            equ	3644	;# 
   183   000E3D                     B1D7            equ	3645	;# 
   184   000E3E                     CANSTAT_RO8     equ	3646	;# 
   185   000E3F                     CANCON_RO8      equ	3647	;# 
   186   000E40                     B2CON           equ	3648	;# 
   187   000E41                     B2SIDH          equ	3649	;# 
   188   000E42                     B2SIDL          equ	3650	;# 
   189   000E43                     B2EIDH          equ	3651	;# 
   190   000E44                     B2EIDL          equ	3652	;# 
   191   000E45                     B2DLC           equ	3653	;# 
   192   000E46                     B2D0            equ	3654	;# 
   193   000E47                     B2D1            equ	3655	;# 
   194   000E48                     B2D2            equ	3656	;# 
   195   000E49                     B2D3            equ	3657	;# 
   196   000E4A                     B2D4            equ	3658	;# 
   197   000E4B                     B2D5            equ	3659	;# 
   198   000E4C                     B2D6            equ	3660	;# 
   199   000E4D                     B2D7            equ	3661	;# 
   200   000E4E                     CANSTAT_RO7     equ	3662	;# 
   201   000E4F                     CANCON_RO7      equ	3663	;# 
   202   000E50                     B3CON           equ	3664	;# 
   203   000E51                     B3SIDH          equ	3665	;# 
   204   000E52                     B3SIDL          equ	3666	;# 
   205   000E53                     B3EIDH          equ	3667	;# 
   206   000E54                     B3EIDL          equ	3668	;# 
   207   000E55                     B3DLC           equ	3669	;# 
   208   000E56                     B3D0            equ	3670	;# 
   209   000E57                     B3D1            equ	3671	;# 
   210   000E58                     B3D2            equ	3672	;# 
   211   000E59                     B3D3            equ	3673	;# 
   212   000E5A                     B3D4            equ	3674	;# 
   213   000E5B                     B3D5            equ	3675	;# 
   214   000E5C                     B3D6            equ	3676	;# 
   215   000E5D                     B3D7            equ	3677	;# 
   216   000E5E                     CANSTAT_RO6     equ	3678	;# 
   217   000E5F                     CANCON_RO6      equ	3679	;# 
   218   000E60                     B4CON           equ	3680	;# 
   219   000E61                     B4SIDH          equ	3681	;# 
   220   000E62                     B4SIDL          equ	3682	;# 
   221   000E63                     B4EIDH          equ	3683	;# 
   222   000E64                     B4EIDL          equ	3684	;# 
   223   000E65                     B4DLC           equ	3685	;# 
   224   000E66                     B4D0            equ	3686	;# 
   225   000E67                     B4D1            equ	3687	;# 
   226   000E68                     B4D2            equ	3688	;# 
   227   000E69                     B4D3            equ	3689	;# 
   228   000E6A                     B4D4            equ	3690	;# 
   229   000E6B                     B4D5            equ	3691	;# 
   230   000E6C                     B4D6            equ	3692	;# 
   231   000E6D                     B4D7            equ	3693	;# 
   232   000E6E                     CANSTAT_RO5     equ	3694	;# 
   233   000E6F                     CANCON_RO5      equ	3695	;# 
   234   000E70                     B5CON           equ	3696	;# 
   235   000E71                     B5SIDH          equ	3697	;# 
   236   000E72                     B5SIDL          equ	3698	;# 
   237   000E73                     B5EIDH          equ	3699	;# 
   238   000E74                     B5EIDL          equ	3700	;# 
   239   000E75                     B5DLC           equ	3701	;# 
   240   000E76                     B5D0            equ	3702	;# 
   241   000E77                     B5D1            equ	3703	;# 
   242   000E78                     B5D2            equ	3704	;# 
   243   000E79                     B5D3            equ	3705	;# 
   244   000E7A                     B5D4            equ	3706	;# 
   245   000E7B                     B5D5            equ	3707	;# 
   246   000E7C                     B5D6            equ	3708	;# 
   247   000E7D                     B5D7            equ	3709	;# 
   248   000E7E                     CANSTAT_RO4     equ	3710	;# 
   249   000E7F                     CANCON_RO4      equ	3711	;# 
   250   000F00                     RXF0SIDH        equ	3840	;# 
   251   000F01                     RXF0SIDL        equ	3841	;# 
   252   000F02                     RXF0EIDH        equ	3842	;# 
   253   000F03                     RXF0EIDL        equ	3843	;# 
   254   000F04                     RXF1SIDH        equ	3844	;# 
   255   000F05                     RXF1SIDL        equ	3845	;# 
   256   000F06                     RXF1EIDH        equ	3846	;# 
   257   000F07                     RXF1EIDL        equ	3847	;# 
   258   000F08                     RXF2SIDH        equ	3848	;# 
   259   000F09                     RXF2SIDL        equ	3849	;# 
   260   000F0A                     RXF2EIDH        equ	3850	;# 
   261   000F0B                     RXF2EIDL        equ	3851	;# 
   262   000F0C                     RXF3SIDH        equ	3852	;# 
   263   000F0D                     RXF3SIDL        equ	3853	;# 
   264   000F0E                     RXF3EIDH        equ	3854	;# 
   265   000F0F                     RXF3EIDL        equ	3855	;# 
   266   000F10                     RXF4SIDH        equ	3856	;# 
   267   000F11                     RXF4SIDL        equ	3857	;# 
   268   000F12                     RXF4EIDH        equ	3858	;# 
   269   000F13                     RXF4EIDL        equ	3859	;# 
   270   000F14                     RXF5SIDH        equ	3860	;# 
   271   000F15                     RXF5SIDL        equ	3861	;# 
   272   000F16                     RXF5EIDH        equ	3862	;# 
   273   000F17                     RXF5EIDL        equ	3863	;# 
   274   000F18                     RXM0SIDH        equ	3864	;# 
   275   000F19                     RXM0SIDL        equ	3865	;# 
   276   000F1A                     RXM0EIDH        equ	3866	;# 
   277   000F1B                     RXM0EIDL        equ	3867	;# 
   278   000F1C                     RXM1SIDH        equ	3868	;# 
   279   000F1D                     RXM1SIDL        equ	3869	;# 
   280   000F1E                     RXM1EIDH        equ	3870	;# 
   281   000F1F                     RXM1EIDL        equ	3871	;# 
   282   000F20                     TXB2CON         equ	3872	;# 
   283   000F21                     TXB2SIDH        equ	3873	;# 
   284   000F22                     TXB2SIDL        equ	3874	;# 
   285   000F23                     TXB2EIDH        equ	3875	;# 
   286   000F24                     TXB2EIDL        equ	3876	;# 
   287   000F25                     TXB2DLC         equ	3877	;# 
   288   000F26                     TXB2D0          equ	3878	;# 
   289   000F27                     TXB2D1          equ	3879	;# 
   290   000F28                     TXB2D2          equ	3880	;# 
   291   000F29                     TXB2D3          equ	3881	;# 
   292   000F2A                     TXB2D4          equ	3882	;# 
   293   000F2B                     TXB2D5          equ	3883	;# 
   294   000F2C                     TXB2D6          equ	3884	;# 
   295   000F2D                     TXB2D7          equ	3885	;# 
   296   000F2E                     CANSTAT_RO3     equ	3886	;# 
   297   000F2F                     CANCON_RO3      equ	3887	;# 
   298   000F30                     TXB1CON         equ	3888	;# 
   299   000F31                     TXB1SIDH        equ	3889	;# 
   300   000F32                     TXB1SIDL        equ	3890	;# 
   301   000F33                     TXB1EIDH        equ	3891	;# 
   302   000F34                     TXB1EIDL        equ	3892	;# 
   303   000F35                     TXB1DLC         equ	3893	;# 
   304   000F36                     TXB1D0          equ	3894	;# 
   305   000F37                     TXB1D1          equ	3895	;# 
   306   000F38                     TXB1D2          equ	3896	;# 
   307   000F39                     TXB1D3          equ	3897	;# 
   308   000F3A                     TXB1D4          equ	3898	;# 
   309   000F3B                     TXB1D5          equ	3899	;# 
   310   000F3C                     TXB1D6          equ	3900	;# 
   311   000F3D                     TXB1D7          equ	3901	;# 
   312   000F3E                     CANSTAT_RO2     equ	3902	;# 
   313   000F3F                     CANCON_RO2      equ	3903	;# 
   314   000F40                     TXB0CON         equ	3904	;# 
   315   000F41                     TXB0SIDH        equ	3905	;# 
   316   000F42                     TXB0SIDL        equ	3906	;# 
   317   000F43                     TXB0EIDH        equ	3907	;# 
   318   000F44                     TXB0EIDL        equ	3908	;# 
   319   000F45                     TXB0DLC         equ	3909	;# 
   320   000F46                     TXB0D0          equ	3910	;# 
   321   000F47                     TXB0D1          equ	3911	;# 
   322   000F48                     TXB0D2          equ	3912	;# 
   323   000F49                     TXB0D3          equ	3913	;# 
   324   000F4A                     TXB0D4          equ	3914	;# 
   325   000F4B                     TXB0D5          equ	3915	;# 
   326   000F4C                     TXB0D6          equ	3916	;# 
   327   000F4D                     TXB0D7          equ	3917	;# 
   328   000F4E                     CANSTAT_RO1     equ	3918	;# 
   329   000F4F                     CANCON_RO1      equ	3919	;# 
   330   000F50                     RXB1CON         equ	3920	;# 
   331   000F51                     RXB1SIDH        equ	3921	;# 
   332   000F52                     RXB1SIDL        equ	3922	;# 
   333   000F53                     RXB1EIDH        equ	3923	;# 
   334   000F54                     RXB1EIDL        equ	3924	;# 
   335   000F55                     RXB1DLC         equ	3925	;# 
   336   000F56                     RXB1D0          equ	3926	;# 
   337   000F57                     RXB1D1          equ	3927	;# 
   338   000F58                     RXB1D2          equ	3928	;# 
   339   000F59                     RXB1D3          equ	3929	;# 
   340   000F5A                     RXB1D4          equ	3930	;# 
   341   000F5B                     RXB1D5          equ	3931	;# 
   342   000F5C                     RXB1D6          equ	3932	;# 
   343   000F5D                     RXB1D7          equ	3933	;# 
   344   000F5E                     CANSTAT_RO0     equ	3934	;# 
   345   000F5F                     CANCON_RO0      equ	3935	;# 
   346   000F60                     RXB0CON         equ	3936	;# 
   347   000F61                     RXB0SIDH        equ	3937	;# 
   348   000F62                     RXB0SIDL        equ	3938	;# 
   349   000F63                     RXB0EIDH        equ	3939	;# 
   350   000F64                     RXB0EIDL        equ	3940	;# 
   351   000F65                     RXB0DLC         equ	3941	;# 
   352   000F66                     RXB0D0          equ	3942	;# 
   353   000F67                     RXB0D1          equ	3943	;# 
   354   000F68                     RXB0D2          equ	3944	;# 
   355   000F69                     RXB0D3          equ	3945	;# 
   356   000F6A                     RXB0D4          equ	3946	;# 
   357   000F6B                     RXB0D5          equ	3947	;# 
   358   000F6C                     RXB0D6          equ	3948	;# 
   359   000F6D                     RXB0D7          equ	3949	;# 
   360   000F6E                     CANSTAT         equ	3950	;# 
   361   000F6F                     CANCON          equ	3951	;# 
   362   000F70                     BRGCON1         equ	3952	;# 
   363   000F71                     BRGCON2         equ	3953	;# 
   364   000F72                     BRGCON3         equ	3954	;# 
   365   000F73                     CIOCON          equ	3955	;# 
   366   000F74                     COMSTAT         equ	3956	;# 
   367   000F75                     RXERRCNT        equ	3957	;# 
   368   000F76                     TXERRCNT        equ	3958	;# 
   369   000F77                     ECANCON         equ	3959	;# 
   370   000F80                     PORTA           equ	3968	;# 
   371   000F81                     PORTB           equ	3969	;# 
   372   000F82                     PORTC           equ	3970	;# 
   373   000F83                     PORTD           equ	3971	;# 
   374   000F84                     PORTE           equ	3972	;# 
   375   000F89                     LATA            equ	3977	;# 
   376   000F8A                     LATB            equ	3978	;# 
   377   000F8B                     LATC            equ	3979	;# 
   378   000F8C                     LATD            equ	3980	;# 
   379   000F8D                     LATE            equ	3981	;# 
   380   000F92                     TRISA           equ	3986	;# 
   381   000F92                     DDRA            equ	3986	;# 
   382   000F93                     TRISB           equ	3987	;# 
   383   000F93                     DDRB            equ	3987	;# 
   384   000F94                     TRISC           equ	3988	;# 
   385   000F94                     DDRC            equ	3988	;# 
   386   000F95                     TRISD           equ	3989	;# 
   387   000F95                     DDRD            equ	3989	;# 
   388   000F96                     TRISE           equ	3990	;# 
   389   000F96                     DDRE            equ	3990	;# 
   390   000F9B                     OSCTUNE         equ	3995	;# 
   391   000F9D                     PIE1            equ	3997	;# 
   392   000F9E                     PIR1            equ	3998	;# 
   393   000F9F                     IPR1            equ	3999	;# 
   394   000FA0                     PIE2            equ	4000	;# 
   395   000FA1                     PIR2            equ	4001	;# 
   396   000FA2                     IPR2            equ	4002	;# 
   397   000FA3                     PIE3            equ	4003	;# 
   398   000FA4                     PIR3            equ	4004	;# 
   399   000FA5                     IPR3            equ	4005	;# 
   400   000FA6                     EECON1          equ	4006	;# 
   401   000FA7                     EECON2          equ	4007	;# 
   402   000FA8                     EEDATA          equ	4008	;# 
   403   000FA9                     EEADR           equ	4009	;# 
   404   000FAB                     RCSTA           equ	4011	;# 
   405   000FAB                     RCSTA1          equ	4011	;# 
   406   000FAC                     TXSTA           equ	4012	;# 
   407   000FAC                     TXSTA1          equ	4012	;# 
   408   000FAD                     TXREG           equ	4013	;# 
   409   000FAD                     TXREG1          equ	4013	;# 
   410   000FAE                     RCREG           equ	4014	;# 
   411   000FAE                     RCREG1          equ	4014	;# 
   412   000FAF                     SPBRG           equ	4015	;# 
   413   000FAF                     SPBRG1          equ	4015	;# 
   414   000FB0                     SPBRGH          equ	4016	;# 
   415   000FB1                     T3CON           equ	4017	;# 
   416   000FB2                     TMR3            equ	4018	;# 
   417   000FB2                     TMR3L           equ	4018	;# 
   418   000FB3                     TMR3H           equ	4019	;# 
   419   000FB4                     CMCON           equ	4020	;# 
   420   000FB5                     CVRCON          equ	4021	;# 
   421   000FB6                     ECCP1AS         equ	4022	;# 
   422   000FB7                     ECCP1DEL        equ	4023	;# 
   423   000FB8                     BAUDCON         equ	4024	;# 
   424   000FB8                     BAUDCTL         equ	4024	;# 
   425   000FBA                     ECCP1CON        equ	4026	;# 
   426   000FBB                     ECCPR1          equ	4027	;# 
   427   000FBB                     ECCPR1L         equ	4027	;# 
   428   000FBC                     ECCPR1H         equ	4028	;# 
   429   000FBD                     CCP1CON         equ	4029	;# 
   430   000FBE                     CCPR1           equ	4030	;# 
   431   000FBE                     CCPR1L          equ	4030	;# 
   432   000FBF                     CCPR1H          equ	4031	;# 
   433   000FC0                     ADCON2          equ	4032	;# 
   434   000FC1                     ADCON1          equ	4033	;# 
   435   000FC2                     ADCON0          equ	4034	;# 
   436   000FC3                     ADRES           equ	4035	;# 
   437   000FC3                     ADRESL          equ	4035	;# 
   438   000FC4                     ADRESH          equ	4036	;# 
   439   000FC5                     SSPCON2         equ	4037	;# 
   440   000FC6                     SSPCON1         equ	4038	;# 
   441   000FC7                     SSPSTAT         equ	4039	;# 
   442   000FC8                     SSPADD          equ	4040	;# 
   443   000FC9                     SSPBUF          equ	4041	;# 
   444   000FCA                     T2CON           equ	4042	;# 
   445   000FCB                     PR2             equ	4043	;# 
   446   000FCB                     MEMCON          equ	4043	;# 
   447   000FCC                     TMR2            equ	4044	;# 
   448   000FCD                     T1CON           equ	4045	;# 
   449   000FCE                     TMR1            equ	4046	;# 
   450   000FCE                     TMR1L           equ	4046	;# 
   451   000FCF                     TMR1H           equ	4047	;# 
   452   000FD0                     RCON            equ	4048	;# 
   453   000FD1                     WDTCON          equ	4049	;# 
   454   000FD2                     HLVDCON         equ	4050	;# 
   455   000FD2                     LVDCON          equ	4050	;# 
   456   000FD3                     OSCCON          equ	4051	;# 
   457   000FD5                     T0CON           equ	4053	;# 
   458   000FD6                     TMR0            equ	4054	;# 
   459   000FD6                     TMR0L           equ	4054	;# 
   460   000FD7                     TMR0H           equ	4055	;# 
   461   000FD8                     STATUS          equ	4056	;# 
   462   000FD9                     FSR2            equ	4057	;# 
   463   000FD9                     FSR2L           equ	4057	;# 
   464   000FDA                     FSR2H           equ	4058	;# 
   465   000FDB                     PLUSW2          equ	4059	;# 
   466   000FDC                     PREINC2         equ	4060	;# 
   467   000FDD                     POSTDEC2        equ	4061	;# 
   468   000FDE                     POSTINC2        equ	4062	;# 
   469   000FDF                     INDF2           equ	4063	;# 
   470   000FE0                     BSR             equ	4064	;# 
   471   000FE1                     FSR1            equ	4065	;# 
   472   000FE1                     FSR1L           equ	4065	;# 
   473   000FE2                     FSR1H           equ	4066	;# 
   474   000FE3                     PLUSW1          equ	4067	;# 
   475   000FE4                     PREINC1         equ	4068	;# 
   476   000FE5                     POSTDEC1        equ	4069	;# 
   477   000FE6                     POSTINC1        equ	4070	;# 
   478   000FE7                     INDF1           equ	4071	;# 
   479   000FE8                     WREG            equ	4072	;# 
   480   000FE9                     FSR0            equ	4073	;# 
   481   000FE9                     FSR0L           equ	4073	;# 
   482   000FEA                     FSR0H           equ	4074	;# 
   483   000FEB                     PLUSW0          equ	4075	;# 
   484   000FEC                     PREINC0         equ	4076	;# 
   485   000FED                     POSTDEC0        equ	4077	;# 
   486   000FEE                     POSTINC0        equ	4078	;# 
   487   000FEF                     INDF0           equ	4079	;# 
   488   000FF0                     INTCON3         equ	4080	;# 
   489   000FF1                     INTCON2         equ	4081	;# 
   490   000FF2                     INTCON          equ	4082	;# 
   491   000FF3                     PROD            equ	4083	;# 
   492   000FF3                     PRODL           equ	4083	;# 
   493   000FF4                     PRODH           equ	4084	;# 
   494   000FF5                     TABLAT          equ	4085	;# 
   495   000FF6                     TBLPTR          equ	4086	;# 
   496   000FF6                     TBLPTRL         equ	4086	;# 
   497   000FF7                     TBLPTRH         equ	4087	;# 
   498   000FF8                     TBLPTRU         equ	4088	;# 
   499   000FF9                     PCLAT           equ	4089	;# 
   500   000FF9                     PC              equ	4089	;# 
   501   000FF9                     PCL             equ	4089	;# 
   502   000FFA                     PCLATH          equ	4090	;# 
   503   000FFB                     PCLATU          equ	4091	;# 
   504   000FFC                     STKPTR          equ	4092	;# 
   505   000FFD                     TOS             equ	4093	;# 
   506   000FFD                     TOSL            equ	4093	;# 
   507   000FFE                     TOSH            equ	4094	;# 
   508   000FFF                     TOSU            equ	4095	;# 
   509   000D60                     RXF6SIDH        equ	3424	;# 
   510   000D61                     RXF6SIDL        equ	3425	;# 
   511   000D62                     RXF6EIDH        equ	3426	;# 
   512   000D63                     RXF6EIDL        equ	3427	;# 
   513   000D64                     RXF7SIDH        equ	3428	;# 
   514   000D65                     RXF7SIDL        equ	3429	;# 
   515   000D66                     RXF7EIDH        equ	3430	;# 
   516   000D67                     RXF7EIDL        equ	3431	;# 
   517   000D68                     RXF8SIDH        equ	3432	;# 
   518   000D69                     RXF8SIDL        equ	3433	;# 
   519   000D6A                     RXF8EIDH        equ	3434	;# 
   520   000D6B                     RXF8EIDL        equ	3435	;# 
   521   000D70                     RXF9SIDH        equ	3440	;# 
   522   000D71                     RXF9SIDL        equ	3441	;# 
   523   000D72                     RXF9EIDH        equ	3442	;# 
   524   000D73                     RXF9EIDL        equ	3443	;# 
   525   000D74                     RXF10SIDH       equ	3444	;# 
   526   000D75                     RXF10SIDL       equ	3445	;# 
   527   000D76                     RXF10EIDH       equ	3446	;# 
   528   000D77                     RXF10EIDL       equ	3447	;# 
   529   000D78                     RXF11SIDH       equ	3448	;# 
   530   000D79                     RXF11SIDL       equ	3449	;# 
   531   000D7A                     RXF11EIDH       equ	3450	;# 
   532   000D7B                     RXF11EIDL       equ	3451	;# 
   533   000D80                     RXF12SIDH       equ	3456	;# 
   534   000D81                     RXF12SIDL       equ	3457	;# 
   535   000D82                     RXF12EIDH       equ	3458	;# 
   536   000D83                     RXF12EIDL       equ	3459	;# 
   537   000D84                     RXF13SIDH       equ	3460	;# 
   538   000D85                     RXF13SIDL       equ	3461	;# 
   539   000D86                     RXF13EIDH       equ	3462	;# 
   540   000D87                     RXF13EIDL       equ	3463	;# 
   541   000D88                     RXF14SIDH       equ	3464	;# 
   542   000D89                     RXF14SIDL       equ	3465	;# 
   543   000D8A                     RXF14EIDH       equ	3466	;# 
   544   000D8B                     RXF14EIDL       equ	3467	;# 
   545   000D90                     RXF15SIDH       equ	3472	;# 
   546   000D91                     RXF15SIDL       equ	3473	;# 
   547   000D92                     RXF15EIDH       equ	3474	;# 
   548   000D93                     RXF15EIDL       equ	3475	;# 
   549   000DD4                     RXFCON0         equ	3540	;# 
   550   000DD5                     RXFCON1         equ	3541	;# 
   551   000DD8                     SDFLC           equ	3544	;# 
   552   000DE0                     RXFBCON0        equ	3552	;# 
   553   000DE1                     RXFBCON1        equ	3553	;# 
   554   000DE2                     RXFBCON2        equ	3554	;# 
   555   000DE3                     RXFBCON3        equ	3555	;# 
   556   000DE4                     RXFBCON4        equ	3556	;# 
   557   000DE5                     RXFBCON5        equ	3557	;# 
   558   000DE6                     RXFBCON6        equ	3558	;# 
   559   000DE7                     RXFBCON7        equ	3559	;# 
   560   000DF0                     MSEL0           equ	3568	;# 
   561   000DF1                     MSEL1           equ	3569	;# 
   562   000DF2                     MSEL2           equ	3570	;# 
   563   000DF3                     MSEL3           equ	3571	;# 
   564   000DF8                     BSEL0           equ	3576	;# 
   565   000DFA                     BIE0            equ	3578	;# 
   566   000DFC                     TXBIE           equ	3580	;# 
   567   000E20                     B0CON           equ	3616	;# 
   568   000E21                     B0SIDH          equ	3617	;# 
   569   000E22                     B0SIDL          equ	3618	;# 
   570   000E23                     B0EIDH          equ	3619	;# 
   571   000E24                     B0EIDL          equ	3620	;# 
   572   000E25                     B0DLC           equ	3621	;# 
   573   000E26                     B0D0            equ	3622	;# 
   574   000E27                     B0D1            equ	3623	;# 
   575   000E28                     B0D2            equ	3624	;# 
   576   000E29                     B0D3            equ	3625	;# 
   577   000E2A                     B0D4            equ	3626	;# 
   578   000E2B                     B0D5            equ	3627	;# 
   579   000E2C                     B0D6            equ	3628	;# 
   580   000E2D                     B0D7            equ	3629	;# 
   581   000E2E                     CANSTAT_RO9     equ	3630	;# 
   582   000E2F                     CANCON_RO9      equ	3631	;# 
   583   000E30                     B1CON           equ	3632	;# 
   584   000E31                     B1SIDH          equ	3633	;# 
   585   000E32                     B1SIDL          equ	3634	;# 
   586   000E33                     B1EIDH          equ	3635	;# 
   587   000E34                     B1EIDL          equ	3636	;# 
   588   000E35                     B1DLC           equ	3637	;# 
   589   000E36                     B1D0            equ	3638	;# 
   590   000E37                     B1D1            equ	3639	;# 
   591   000E38                     B1D2            equ	3640	;# 
   592   000E39                     B1D3            equ	3641	;# 
   593   000E3A                     B1D4            equ	3642	;# 
   594   000E3B                     B1D5            equ	3643	;# 
   595   000E3C                     B1D6            equ	3644	;# 
   596   000E3D                     B1D7            equ	3645	;# 
   597   000E3E                     CANSTAT_RO8     equ	3646	;# 
   598   000E3F                     CANCON_RO8      equ	3647	;# 
   599   000E40                     B2CON           equ	3648	;# 
   600   000E41                     B2SIDH          equ	3649	;# 
   601   000E42                     B2SIDL          equ	3650	;# 
   602   000E43                     B2EIDH          equ	3651	;# 
   603   000E44                     B2EIDL          equ	3652	;# 
   604   000E45                     B2DLC           equ	3653	;# 
   605   000E46                     B2D0            equ	3654	;# 
   606   000E47                     B2D1            equ	3655	;# 
   607   000E48                     B2D2            equ	3656	;# 
   608   000E49                     B2D3            equ	3657	;# 
   609   000E4A                     B2D4            equ	3658	;# 
   610   000E4B                     B2D5            equ	3659	;# 
   611   000E4C                     B2D6            equ	3660	;# 
   612   000E4D                     B2D7            equ	3661	;# 
   613   000E4E                     CANSTAT_RO7     equ	3662	;# 
   614   000E4F                     CANCON_RO7      equ	3663	;# 
   615   000E50                     B3CON           equ	3664	;# 
   616   000E51                     B3SIDH          equ	3665	;# 
   617   000E52                     B3SIDL          equ	3666	;# 
   618   000E53                     B3EIDH          equ	3667	;# 
   619   000E54                     B3EIDL          equ	3668	;# 
   620   000E55                     B3DLC           equ	3669	;# 
   621   000E56                     B3D0            equ	3670	;# 
   622   000E57                     B3D1            equ	3671	;# 
   623   000E58                     B3D2            equ	3672	;# 
   624   000E59                     B3D3            equ	3673	;# 
   625   000E5A                     B3D4            equ	3674	;# 
   626   000E5B                     B3D5            equ	3675	;# 
   627   000E5C                     B3D6            equ	3676	;# 
   628   000E5D                     B3D7            equ	3677	;# 
   629   000E5E                     CANSTAT_RO6     equ	3678	;# 
   630   000E5F                     CANCON_RO6      equ	3679	;# 
   631   000E60                     B4CON           equ	3680	;# 
   632   000E61                     B4SIDH          equ	3681	;# 
   633   000E62                     B4SIDL          equ	3682	;# 
   634   000E63                     B4EIDH          equ	3683	;# 
   635   000E64                     B4EIDL          equ	3684	;# 
   636   000E65                     B4DLC           equ	3685	;# 
   637   000E66                     B4D0            equ	3686	;# 
   638   000E67                     B4D1            equ	3687	;# 
   639   000E68                     B4D2            equ	3688	;# 
   640   000E69                     B4D3            equ	3689	;# 
   641   000E6A                     B4D4            equ	3690	;# 
   642   000E6B                     B4D5            equ	3691	;# 
   643   000E6C                     B4D6            equ	3692	;# 
   644   000E6D                     B4D7            equ	3693	;# 
   645   000E6E                     CANSTAT_RO5     equ	3694	;# 
   646   000E6F                     CANCON_RO5      equ	3695	;# 
   647   000E70                     B5CON           equ	3696	;# 
   648   000E71                     B5SIDH          equ	3697	;# 
   649   000E72                     B5SIDL          equ	3698	;# 
   650   000E73                     B5EIDH          equ	3699	;# 
   651   000E74                     B5EIDL          equ	3700	;# 
   652   000E75                     B5DLC           equ	3701	;# 
   653   000E76                     B5D0            equ	3702	;# 
   654   000E77                     B5D1            equ	3703	;# 
   655   000E78                     B5D2            equ	3704	;# 
   656   000E79                     B5D3            equ	3705	;# 
   657   000E7A                     B5D4            equ	3706	;# 
   658   000E7B                     B5D5            equ	3707	;# 
   659   000E7C                     B5D6            equ	3708	;# 
   660   000E7D                     B5D7            equ	3709	;# 
   661   000E7E                     CANSTAT_RO4     equ	3710	;# 
   662   000E7F                     CANCON_RO4      equ	3711	;# 
   663   000F00                     RXF0SIDH        equ	3840	;# 
   664   000F01                     RXF0SIDL        equ	3841	;# 
   665   000F02                     RXF0EIDH        equ	3842	;# 
   666   000F03                     RXF0EIDL        equ	3843	;# 
   667   000F04                     RXF1SIDH        equ	3844	;# 
   668   000F05                     RXF1SIDL        equ	3845	;# 
   669   000F06                     RXF1EIDH        equ	3846	;# 
   670   000F07                     RXF1EIDL        equ	3847	;# 
   671   000F08                     RXF2SIDH        equ	3848	;# 
   672   000F09                     RXF2SIDL        equ	3849	;# 
   673   000F0A                     RXF2EIDH        equ	3850	;# 
   674   000F0B                     RXF2EIDL        equ	3851	;# 
   675   000F0C                     RXF3SIDH        equ	3852	;# 
   676   000F0D                     RXF3SIDL        equ	3853	;# 
   677   000F0E                     RXF3EIDH        equ	3854	;# 
   678   000F0F                     RXF3EIDL        equ	3855	;# 
   679   000F10                     RXF4SIDH        equ	3856	;# 
   680   000F11                     RXF4SIDL        equ	3857	;# 
   681   000F12                     RXF4EIDH        equ	3858	;# 
   682   000F13                     RXF4EIDL        equ	3859	;# 
   683   000F14                     RXF5SIDH        equ	3860	;# 
   684   000F15                     RXF5SIDL        equ	3861	;# 
   685   000F16                     RXF5EIDH        equ	3862	;# 
   686   000F17                     RXF5EIDL        equ	3863	;# 
   687   000F18                     RXM0SIDH        equ	3864	;# 
   688   000F19                     RXM0SIDL        equ	3865	;# 
   689   000F1A                     RXM0EIDH        equ	3866	;# 
   690   000F1B                     RXM0EIDL        equ	3867	;# 
   691   000F1C                     RXM1SIDH        equ	3868	;# 
   692   000F1D                     RXM1SIDL        equ	3869	;# 
   693   000F1E                     RXM1EIDH        equ	3870	;# 
   694   000F1F                     RXM1EIDL        equ	3871	;# 
   695   000F20                     TXB2CON         equ	3872	;# 
   696   000F21                     TXB2SIDH        equ	3873	;# 
   697   000F22                     TXB2SIDL        equ	3874	;# 
   698   000F23                     TXB2EIDH        equ	3875	;# 
   699   000F24                     TXB2EIDL        equ	3876	;# 
   700   000F25                     TXB2DLC         equ	3877	;# 
   701   000F26                     TXB2D0          equ	3878	;# 
   702   000F27                     TXB2D1          equ	3879	;# 
   703   000F28                     TXB2D2          equ	3880	;# 
   704   000F29                     TXB2D3          equ	3881	;# 
   705   000F2A                     TXB2D4          equ	3882	;# 
   706   000F2B                     TXB2D5          equ	3883	;# 
   707   000F2C                     TXB2D6          equ	3884	;# 
   708   000F2D                     TXB2D7          equ	3885	;# 
   709   000F2E                     CANSTAT_RO3     equ	3886	;# 
   710   000F2F                     CANCON_RO3      equ	3887	;# 
   711   000F30                     TXB1CON         equ	3888	;# 
   712   000F31                     TXB1SIDH        equ	3889	;# 
   713   000F32                     TXB1SIDL        equ	3890	;# 
   714   000F33                     TXB1EIDH        equ	3891	;# 
   715   000F34                     TXB1EIDL        equ	3892	;# 
   716   000F35                     TXB1DLC         equ	3893	;# 
   717   000F36                     TXB1D0          equ	3894	;# 
   718   000F37                     TXB1D1          equ	3895	;# 
   719   000F38                     TXB1D2          equ	3896	;# 
   720   000F39                     TXB1D3          equ	3897	;# 
   721   000F3A                     TXB1D4          equ	3898	;# 
   722   000F3B                     TXB1D5          equ	3899	;# 
   723   000F3C                     TXB1D6          equ	3900	;# 
   724   000F3D                     TXB1D7          equ	3901	;# 
   725   000F3E                     CANSTAT_RO2     equ	3902	;# 
   726   000F3F                     CANCON_RO2      equ	3903	;# 
   727   000F40                     TXB0CON         equ	3904	;# 
   728   000F41                     TXB0SIDH        equ	3905	;# 
   729   000F42                     TXB0SIDL        equ	3906	;# 
   730   000F43                     TXB0EIDH        equ	3907	;# 
   731   000F44                     TXB0EIDL        equ	3908	;# 
   732   000F45                     TXB0DLC         equ	3909	;# 
   733   000F46                     TXB0D0          equ	3910	;# 
   734   000F47                     TXB0D1          equ	3911	;# 
   735   000F48                     TXB0D2          equ	3912	;# 
   736   000F49                     TXB0D3          equ	3913	;# 
   737   000F4A                     TXB0D4          equ	3914	;# 
   738   000F4B                     TXB0D5          equ	3915	;# 
   739   000F4C                     TXB0D6          equ	3916	;# 
   740   000F4D                     TXB0D7          equ	3917	;# 
   741   000F4E                     CANSTAT_RO1     equ	3918	;# 
   742   000F4F                     CANCON_RO1      equ	3919	;# 
   743   000F50                     RXB1CON         equ	3920	;# 
   744   000F51                     RXB1SIDH        equ	3921	;# 
   745   000F52                     RXB1SIDL        equ	3922	;# 
   746   000F53                     RXB1EIDH        equ	3923	;# 
   747   000F54                     RXB1EIDL        equ	3924	;# 
   748   000F55                     RXB1DLC         equ	3925	;# 
   749   000F56                     RXB1D0          equ	3926	;# 
   750   000F57                     RXB1D1          equ	3927	;# 
   751   000F58                     RXB1D2          equ	3928	;# 
   752   000F59                     RXB1D3          equ	3929	;# 
   753   000F5A                     RXB1D4          equ	3930	;# 
   754   000F5B                     RXB1D5          equ	3931	;# 
   755   000F5C                     RXB1D6          equ	3932	;# 
   756   000F5D                     RXB1D7          equ	3933	;# 
   757   000F5E                     CANSTAT_RO0     equ	3934	;# 
   758   000F5F                     CANCON_RO0      equ	3935	;# 
   759   000F60                     RXB0CON         equ	3936	;# 
   760   000F61                     RXB0SIDH        equ	3937	;# 
   761   000F62                     RXB0SIDL        equ	3938	;# 
   762   000F63                     RXB0EIDH        equ	3939	;# 
   763   000F64                     RXB0EIDL        equ	3940	;# 
   764   000F65                     RXB0DLC         equ	3941	;# 
   765   000F66                     RXB0D0          equ	3942	;# 
   766   000F67                     RXB0D1          equ	3943	;# 
   767   000F68                     RXB0D2          equ	3944	;# 
   768   000F69                     RXB0D3          equ	3945	;# 
   769   000F6A                     RXB0D4          equ	3946	;# 
   770   000F6B                     RXB0D5          equ	3947	;# 
   771   000F6C                     RXB0D6          equ	3948	;# 
   772   000F6D                     RXB0D7          equ	3949	;# 
   773   000F6E                     CANSTAT         equ	3950	;# 
   774   000F6F                     CANCON          equ	3951	;# 
   775   000F70                     BRGCON1         equ	3952	;# 
   776   000F71                     BRGCON2         equ	3953	;# 
   777   000F72                     BRGCON3         equ	3954	;# 
   778   000F73                     CIOCON          equ	3955	;# 
   779   000F74                     COMSTAT         equ	3956	;# 
   780   000F75                     RXERRCNT        equ	3957	;# 
   781   000F76                     TXERRCNT        equ	3958	;# 
   782   000F77                     ECANCON         equ	3959	;# 
   783   000F80                     PORTA           equ	3968	;# 
   784   000F81                     PORTB           equ	3969	;# 
   785   000F82                     PORTC           equ	3970	;# 
   786   000F83                     PORTD           equ	3971	;# 
   787   000F84                     PORTE           equ	3972	;# 
   788   000F89                     LATA            equ	3977	;# 
   789   000F8A                     LATB            equ	3978	;# 
   790   000F8B                     LATC            equ	3979	;# 
   791   000F8C                     LATD            equ	3980	;# 
   792   000F8D                     LATE            equ	3981	;# 
   793   000F92                     TRISA           equ	3986	;# 
   794   000F92                     DDRA            equ	3986	;# 
   795   000F93                     TRISB           equ	3987	;# 
   796   000F93                     DDRB            equ	3987	;# 
   797   000F94                     TRISC           equ	3988	;# 
   798   000F94                     DDRC            equ	3988	;# 
   799   000F95                     TRISD           equ	3989	;# 
   800   000F95                     DDRD            equ	3989	;# 
   801   000F96                     TRISE           equ	3990	;# 
   802   000F96                     DDRE            equ	3990	;# 
   803   000F9B                     OSCTUNE         equ	3995	;# 
   804   000F9D                     PIE1            equ	3997	;# 
   805   000F9E                     PIR1            equ	3998	;# 
   806   000F9F                     IPR1            equ	3999	;# 
   807   000FA0                     PIE2            equ	4000	;# 
   808   000FA1                     PIR2            equ	4001	;# 
   809   000FA2                     IPR2            equ	4002	;# 
   810   000FA3                     PIE3            equ	4003	;# 
   811   000FA4                     PIR3            equ	4004	;# 
   812   000FA5                     IPR3            equ	4005	;# 
   813   000FA6                     EECON1          equ	4006	;# 
   814   000FA7                     EECON2          equ	4007	;# 
   815   000FA8                     EEDATA          equ	4008	;# 
   816   000FA9                     EEADR           equ	4009	;# 
   817   000FAB                     RCSTA           equ	4011	;# 
   818   000FAB                     RCSTA1          equ	4011	;# 
   819   000FAC                     TXSTA           equ	4012	;# 
   820   000FAC                     TXSTA1          equ	4012	;# 
   821   000FAD                     TXREG           equ	4013	;# 
   822   000FAD                     TXREG1          equ	4013	;# 
   823   000FAE                     RCREG           equ	4014	;# 
   824   000FAE                     RCREG1          equ	4014	;# 
   825   000FAF                     SPBRG           equ	4015	;# 
   826   000FAF                     SPBRG1          equ	4015	;# 
   827   000FB0                     SPBRGH          equ	4016	;# 
   828   000FB1                     T3CON           equ	4017	;# 
   829   000FB2                     TMR3            equ	4018	;# 
   830   000FB2                     TMR3L           equ	4018	;# 
   831   000FB3                     TMR3H           equ	4019	;# 
   832   000FB4                     CMCON           equ	4020	;# 
   833   000FB5                     CVRCON          equ	4021	;# 
   834   000FB6                     ECCP1AS         equ	4022	;# 
   835   000FB7                     ECCP1DEL        equ	4023	;# 
   836   000FB8                     BAUDCON         equ	4024	;# 
   837   000FB8                     BAUDCTL         equ	4024	;# 
   838   000FBA                     ECCP1CON        equ	4026	;# 
   839   000FBB                     ECCPR1          equ	4027	;# 
   840   000FBB                     ECCPR1L         equ	4027	;# 
   841   000FBC                     ECCPR1H         equ	4028	;# 
   842   000FBD                     CCP1CON         equ	4029	;# 
   843   000FBE                     CCPR1           equ	4030	;# 
   844   000FBE                     CCPR1L          equ	4030	;# 
   845   000FBF                     CCPR1H          equ	4031	;# 
   846   000FC0                     ADCON2          equ	4032	;# 
   847   000FC1                     ADCON1          equ	4033	;# 
   848   000FC2                     ADCON0          equ	4034	;# 
   849   000FC3                     ADRES           equ	4035	;# 
   850   000FC3                     ADRESL          equ	4035	;# 
   851   000FC4                     ADRESH          equ	4036	;# 
   852   000FC5                     SSPCON2         equ	4037	;# 
   853   000FC6                     SSPCON1         equ	4038	;# 
   854   000FC7                     SSPSTAT         equ	4039	;# 
   855   000FC8                     SSPADD          equ	4040	;# 
   856   000FC9                     SSPBUF          equ	4041	;# 
   857   000FCA                     T2CON           equ	4042	;# 
   858   000FCB                     PR2             equ	4043	;# 
   859   000FCB                     MEMCON          equ	4043	;# 
   860   000FCC                     TMR2            equ	4044	;# 
   861   000FCD                     T1CON           equ	4045	;# 
   862   000FCE                     TMR1            equ	4046	;# 
   863   000FCE                     TMR1L           equ	4046	;# 
   864   000FCF                     TMR1H           equ	4047	;# 
   865   000FD0                     RCON            equ	4048	;# 
   866   000FD1                     WDTCON          equ	4049	;# 
   867   000FD2                     HLVDCON         equ	4050	;# 
   868   000FD2                     LVDCON          equ	4050	;# 
   869   000FD3                     OSCCON          equ	4051	;# 
   870   000FD5                     T0CON           equ	4053	;# 
   871   000FD6                     TMR0            equ	4054	;# 
   872   000FD6                     TMR0L           equ	4054	;# 
   873   000FD7                     TMR0H           equ	4055	;# 
   874   000FD8                     STATUS          equ	4056	;# 
   875   000FD9                     FSR2            equ	4057	;# 
   876   000FD9                     FSR2L           equ	4057	;# 
   877   000FDA                     FSR2H           equ	4058	;# 
   878   000FDB                     PLUSW2          equ	4059	;# 
   879   000FDC                     PREINC2         equ	4060	;# 
   880   000FDD                     POSTDEC2        equ	4061	;# 
   881   000FDE                     POSTINC2        equ	4062	;# 
   882   000FDF                     INDF2           equ	4063	;# 
   883   000FE0                     BSR             equ	4064	;# 
   884   000FE1                     FSR1            equ	4065	;# 
   885   000FE1                     FSR1L           equ	4065	;# 
   886   000FE2                     FSR1H           equ	4066	;# 
   887   000FE3                     PLUSW1          equ	4067	;# 
   888   000FE4                     PREINC1         equ	4068	;# 
   889   000FE5                     POSTDEC1        equ	4069	;# 
   890   000FE6                     POSTINC1        equ	4070	;# 
   891   000FE7                     INDF1           equ	4071	;# 
   892   000FE8                     WREG            equ	4072	;# 
   893   000FE9                     FSR0            equ	4073	;# 
   894   000FE9                     FSR0L           equ	4073	;# 
   895   000FEA                     FSR0H           equ	4074	;# 
   896   000FEB                     PLUSW0          equ	4075	;# 
   897   000FEC                     PREINC0         equ	4076	;# 
   898   000FED                     POSTDEC0        equ	4077	;# 
   899   000FEE                     POSTINC0        equ	4078	;# 
   900   000FEF                     INDF0           equ	4079	;# 
   901   000FF0                     INTCON3         equ	4080	;# 
   902   000FF1                     INTCON2         equ	4081	;# 
   903   000FF2                     INTCON          equ	4082	;# 
   904   000FF3                     PROD            equ	4083	;# 
   905   000FF3                     PRODL           equ	4083	;# 
   906   000FF4                     PRODH           equ	4084	;# 
   907   000FF5                     TABLAT          equ	4085	;# 
   908   000FF6                     TBLPTR          equ	4086	;# 
   909   000FF6                     TBLPTRL         equ	4086	;# 
   910   000FF7                     TBLPTRH         equ	4087	;# 
   911   000FF8                     TBLPTRU         equ	4088	;# 
   912   000FF9                     PCLAT           equ	4089	;# 
   913   000FF9                     PC              equ	4089	;# 
   914   000FF9                     PCL             equ	4089	;# 
   915   000FFA                     PCLATH          equ	4090	;# 
   916   000FFB                     PCLATU          equ	4091	;# 
   917   000FFC                     STKPTR          equ	4092	;# 
   918   000FFD                     TOS             equ	4093	;# 
   919   000FFD                     TOSL            equ	4093	;# 
   920   000FFE                     TOSH            equ	4094	;# 
   921   000FFF                     TOSU            equ	4095	;# 
   922                           
   923                           	psect	idataCOMRAM
   924   0008D6                     __pidataCOMRAM:
   925                           	callstack 0
   926                           
   927                           ;initializer for _digit
   928   0008D6  E7                 	db	231
   929   0008D7  21                 	db	33
   930   0008D8  CB                 	db	203
   931   0008D9  6B                 	db	107
   932   0008DA  2D                 	db	45
   933   0008DB  6E                 	db	110
   934   0008DC  EE                 	db	238
   935   0008DD  23                 	db	35
   936   0008DE  EF                 	db	239
   937   0008DF  6F                 	db	111
   938   000F83                     _PORTD          set	3971
   939   000F94                     _TRISC          set	3988
   940   000F80                     _PORTA          set	3968
   941   000F92                     _TRISA          set	3986
   942   000F95                     _TRISD          set	3989
   943   007C10                     _RC0            set	31760
   944                           
   945                           ; #config settings
   946                           
   947                           	psect	cinit
   948   00088E                     __pcinit:
   949                           	callstack 0
   950   00088E                     start_initialization:
   951                           	callstack 0
   952   00088E                     __initialization:
   953                           	callstack 0
   954                           
   955                           ; Initialize objects allocated to COMRAM (10 bytes)
   956                           ; load TBLPTR registers with __pidataCOMRAM
   957   00088E  0ED6               	movlw	low __pidataCOMRAM
   958   000890  6EF6               	movwf	tblptrl,c
   959   000892  0E08               	movlw	high __pidataCOMRAM
   960   000894  6EF7               	movwf	tblptrh,c
   961   000896  0E00               	movlw	low (__pidataCOMRAM shr (0+16))
   962   000898  6EF8               	movwf	tblptru,c
   963   00089A  EE00  F017         	lfsr	0,__pdataCOMRAM
   964   00089E  EE10 F00A          	lfsr	1,10
   965   0008A2                     copy_data0:
   966   0008A2  0009               	tblrd		*+
   967   0008A4  CFF5 FFEE          	movff	tablat,postinc0
   968   0008A8  50E5               	movf	postdec1,w,c
   969   0008AA  50E1               	movf	fsr1l,w,c
   970   0008AC  E1FA               	bnz	copy_data0
   971                           
   972                           ; Clear objects allocated to COMRAM (10 bytes)
   973   0008AE  EE00  F00D         	lfsr	0,__pbssCOMRAM
   974   0008B2  0E0A               	movlw	10
   975   0008B4                     clear_0:
   976   0008B4  6AEE               	clrf	postinc0,c
   977   0008B6  06E8               	decf	wreg,f,c
   978   0008B8  E1FD               	bnz	clear_0
   979   0008BA                     end_of_initialization:
   980                           	callstack 0
   981   0008BA                     __end_of__initialization:
   982                           	callstack 0
   983   0008BA  0100               	movlb	0
   984   0008BC  EF01  F003         	goto	_main	;jump to C main() function
   985                           
   986                           	psect	bssCOMRAM
   987   00000D                     __pbssCOMRAM:
   988                           	callstack 0
   989   00000D                     _i:
   990                           	callstack 0
   991   00000D                     	ds	2
   992   00000F                     _delay:
   993                           	callstack 0
   994   00000F                     	ds	2
   995   000011                     _count:
   996                           	callstack 0
   997   000011                     	ds	2
   998   000013                     _ssd:
   999                           	callstack 0
  1000   000013                     	ds	4
  1001                           
  1002                           	psect	dataCOMRAM
  1003   000017                     __pdataCOMRAM:
  1004                           	callstack 0
  1005   000017                     _digit:
  1006                           	callstack 0
  1007   000017                     	ds	10
  1008                           
  1009                           	psect	cstackCOMRAM
  1010   000001                     __pcstackCOMRAM:
  1011                           	callstack 0
  1012   000001                     ?___lwdiv:
  1013                           	callstack 0
  1014   000001                     display@data:
  1015                           	callstack 0
  1016   000001                     ___lwdiv@dividend:
  1017                           	callstack 0
  1018   000001                     
  1019                           ; 1 bytes @ 0x0
  1020   000001                     	ds	1
  1021   000002                     ??_display:
  1022                           
  1023                           ; 1 bytes @ 0x1
  1024   000002                     	ds	1
  1025   000003                     ___lwdiv@divisor:
  1026                           	callstack 0
  1027                           
  1028                           ; 2 bytes @ 0x2
  1029   000003                     	ds	1
  1030   000004                     display@wait:
  1031                           	callstack 0
  1032                           
  1033                           ; 4 bytes @ 0x3
  1034   000004                     	ds	1
  1035   000005                     ___lwdiv@quotient:
  1036                           	callstack 0
  1037   000005                     
  1038                           ; 1 bytes @ 0x4
  1039   000005                     	ds	2
  1040   000007                     ___lwdiv@counter:
  1041                           	callstack 0
  1042                           
  1043                           ; 1 bytes @ 0x6
  1044   000007                     	ds	1
  1045   000008                     ?___lwmod:
  1046                           	callstack 0
  1047   000008                     display@digit:
  1048                           	callstack 0
  1049   000008                     ___lwmod@dividend:
  1050                           	callstack 0
  1051                           
  1052                           ; 2 bytes @ 0x7
  1053   000008                     	ds	2
  1054   00000A                     ___lwmod@divisor:
  1055                           	callstack 0
  1056                           
  1057                           ; 2 bytes @ 0x9
  1058   00000A                     	ds	2
  1059   00000C                     ___lwmod@counter:
  1060                           	callstack 0
  1061   00000C                     
  1062                           ; 1 bytes @ 0xB
  1063   00000C                     	ds	1
  1064   00000D                     
  1065                           ; 1 bytes @ 0xC
  1066 ;;
  1067 ;;Main: autosize = 0, tempsize = 0, incstack = 0, save=0
  1068 ;;
  1069 ;; *************** function _main *****************
  1070 ;; Defined at:
  1071 ;;		line 8 in file "newmain.c"
  1072 ;; Parameters:    Size  Location     Type
  1073 ;;		None
  1074 ;; Auto vars:     Size  Location     Type
  1075 ;;		None
  1076 ;; Return value:  Size  Location     Type
  1077 ;;                  1    wreg      void 
  1078 ;; Registers used:
  1079 ;;		wreg, fsr2l, fsr2h, status,2, status,0, cstack
  1080 ;; Tracked objects:
  1081 ;;		On entry : 0/0
  1082 ;;		On exit  : 0/0
  1083 ;;		Unchanged: 0/0
  1084 ;; Data sizes:     COMRAM   BANK0   BANK1   BANK2   BANK3   BANK4   BANK5
  1085 ;;      Params:         0       0       0       0       0       0       0
  1086 ;;      Locals:         0       0       0       0       0       0       0
  1087 ;;      Temps:          0       0       0       0       0       0       0
  1088 ;;      Totals:         0       0       0       0       0       0       0
  1089 ;;Total ram usage:        0 bytes
  1090 ;; Hardware stack levels required when called: 1
  1091 ;; This function calls:
  1092 ;;		___lwdiv
  1093 ;;		___lwmod
  1094 ;;		_display
  1095 ;;		_init_ssd_control
  1096 ;; This function is called by:
  1097 ;;		Startup code after reset
  1098 ;; This function uses a non-reentrant model
  1099 ;;
  1100                           
  1101                           	psect	text0
  1102   000602                     __ptext0:
  1103                           	callstack 0
  1104   000602                     _main:
  1105                           	callstack 30
  1106   000602                     
  1107                           ;newmain.c: 10:     init_ssd_control();
  1108   000602  EC60  F004         	call	_init_ssd_control	;wreg free
  1109   000606                     l874:
  1110                           
  1111                           ;newmain.c: 12:     {;newmain.c: 13:         ssd[3] = digit[count % 10];
  1112   000606  C011  F008         	movff	_count,___lwmod@dividend
  1113   00060A  C012  F009         	movff	_count+1,___lwmod@dividend+1
  1114   00060E  0E00               	movlw	0
  1115   000610  6E0B               	movwf	(___lwmod@divisor+1)^0,c
  1116   000612  0E0A               	movlw	10
  1117   000614  6E0A               	movwf	___lwmod@divisor^0,c
  1118   000616  EC15  F004         	call	___lwmod	;wreg free
  1119   00061A  5008               	movf	?___lwmod^0,w,c
  1120   00061C  0F17               	addlw	low _digit
  1121   00061E  6ED9               	movwf	fsr2l,c
  1122   000620  6ADA               	clrf	fsr2h,c
  1123   000622  50DF               	movf	indf2,w,c
  1124   000624  6E16               	movwf	(_ssd+3)^0,c
  1125   000626                     
  1126                           ;newmain.c: 14:         ssd[2] = digit[(count/10) %10];
  1127   000626  0E00               	movlw	0
  1128   000628  6E04               	movwf	(___lwdiv@divisor+1)^0,c
  1129   00062A  0E0A               	movlw	10
  1130   00062C  6E03               	movwf	___lwdiv@divisor^0,c
  1131   00062E  C011  F001         	movff	_count,___lwdiv@dividend
  1132   000632  C012  F002         	movff	_count+1,___lwdiv@dividend+1
  1133   000636  ECDB  F003         	call	___lwdiv	;wreg free
  1134   00063A  C001  F008         	movff	?___lwdiv,___lwmod@dividend
  1135   00063E  C002  F009         	movff	?___lwdiv+1,___lwmod@dividend+1
  1136   000642  0E00               	movlw	0
  1137   000644  6E0B               	movwf	(___lwmod@divisor+1)^0,c
  1138   000646  0E0A               	movlw	10
  1139   000648  6E0A               	movwf	___lwmod@divisor^0,c
  1140   00064A  EC15  F004         	call	___lwmod	;wreg free
  1141   00064E  5008               	movf	?___lwmod^0,w,c
  1142   000650  0F17               	addlw	low _digit
  1143   000652  6ED9               	movwf	fsr2l,c
  1144   000654  6ADA               	clrf	fsr2h,c
  1145   000656  50DF               	movf	indf2,w,c
  1146   000658  6E15               	movwf	(_ssd+2)^0,c
  1147   00065A                     
  1148                           ;newmain.c: 15:         ssd[1] = digit[(count/100) %10];
  1149   00065A  0E00               	movlw	0
  1150   00065C  6E04               	movwf	(___lwdiv@divisor+1)^0,c
  1151   00065E  0E64               	movlw	100
  1152   000660  6E03               	movwf	___lwdiv@divisor^0,c
  1153   000662  C011  F001         	movff	_count,___lwdiv@dividend
  1154   000666  C012  F002         	movff	_count+1,___lwdiv@dividend+1
  1155   00066A  ECDB  F003         	call	___lwdiv	;wreg free
  1156   00066E  C001  F008         	movff	?___lwdiv,___lwmod@dividend
  1157   000672  C002  F009         	movff	?___lwdiv+1,___lwmod@dividend+1
  1158   000676  0E00               	movlw	0
  1159   000678  6E0B               	movwf	(___lwmod@divisor+1)^0,c
  1160   00067A  0E0A               	movlw	10
  1161   00067C  6E0A               	movwf	___lwmod@divisor^0,c
  1162   00067E  EC15  F004         	call	___lwmod	;wreg free
  1163   000682  5008               	movf	?___lwmod^0,w,c
  1164   000684  0F17               	addlw	low _digit
  1165   000686  6ED9               	movwf	fsr2l,c
  1166   000688  6ADA               	clrf	fsr2h,c
  1167   00068A  50DF               	movf	indf2,w,c
  1168   00068C  6E14               	movwf	(_ssd+1)^0,c
  1169   00068E                     
  1170                           ;newmain.c: 16:         ssd[0] = digit[(count/1000) %10];
  1171   00068E  0E03               	movlw	3
  1172   000690  6E04               	movwf	(___lwdiv@divisor+1)^0,c
  1173   000692  0EE8               	movlw	232
  1174   000694  6E03               	movwf	___lwdiv@divisor^0,c
  1175   000696  C011  F001         	movff	_count,___lwdiv@dividend
  1176   00069A  C012  F002         	movff	_count+1,___lwdiv@dividend+1
  1177   00069E  ECDB  F003         	call	___lwdiv	;wreg free
  1178   0006A2  C001  F008         	movff	?___lwdiv,___lwmod@dividend
  1179   0006A6  C002  F009         	movff	?___lwdiv+1,___lwmod@dividend+1
  1180   0006AA  0E00               	movlw	0
  1181   0006AC  6E0B               	movwf	(___lwmod@divisor+1)^0,c
  1182   0006AE  0E0A               	movlw	10
  1183   0006B0  6E0A               	movwf	___lwmod@divisor^0,c
  1184   0006B2  EC15  F004         	call	___lwmod	;wreg free
  1185   0006B6  5008               	movf	?___lwmod^0,w,c
  1186   0006B8  0F17               	addlw	low _digit
  1187   0006BA  6ED9               	movwf	fsr2l,c
  1188   0006BC  6ADA               	clrf	fsr2h,c
  1189   0006BE  50DF               	movf	indf2,w,c
  1190   0006C0  6E13               	movwf	_ssd^0,c
  1191   0006C2                     
  1192                           ;newmain.c: 18:         if(RC0 == 0)
  1193   0006C2  B082               	btfsc	3970,0,c	;volatile
  1194   0006C4  EF66  F003         	goto	u231
  1195   0006C8  EF68  F003         	goto	u230
  1196   0006CC                     u231:
  1197   0006CC  EF7B  F003         	goto	l890
  1198   0006D0                     u230:
  1199   0006D0                     
  1200                           ;newmain.c: 19:             {;newmain.c: 20:                 i++;
  1201   0006D0  4A0D               	infsnz	_i^0,f,c
  1202   0006D2  2A0E               	incf	(_i+1)^0,f,c
  1203   0006D4                     
  1204                           ;newmain.c: 21:                 if(i>150)
  1205   0006D4  500E               	movf	(_i+1)^0,w,c
  1206   0006D6  E109               	bnz	u240
  1207   0006D8  0E97               	movlw	151
  1208   0006DA  5C0D               	subwf	_i^0,w,c
  1209   0006DC  A0D8               	btfss	status,0,c
  1210   0006DE  EF73  F003         	goto	u241
  1211   0006E2  EF75  F003         	goto	u240
  1212   0006E6                     u241:
  1213   0006E6  EF97  F003         	goto	l900
  1214   0006EA                     u240:
  1215   0006EA                     
  1216                           ;newmain.c: 22:                 {;newmain.c: 23:                     count = 0;
  1217   0006EA  0E00               	movlw	0
  1218   0006EC  6E12               	movwf	(_count+1)^0,c
  1219   0006EE  0E00               	movlw	0
  1220   0006F0  6E11               	movwf	_count^0,c
  1221   0006F2  EF97  F003         	goto	l900
  1222   0006F6                     l890:
  1223   0006F6  500E               	movf	(_i+1)^0,w,c
  1224   0006F8  E109               	bnz	u250
  1225   0006FA  0E02               	movlw	2
  1226   0006FC  5C0D               	subwf	_i^0,w,c
  1227   0006FE  A0D8               	btfss	status,0,c
  1228   000700  EF84  F003         	goto	u251
  1229   000704  EF86  F003         	goto	u250
  1230   000708                     u251:
  1231   000708  EF93  F003         	goto	l896
  1232   00070C                     u250:
  1233   00070C  500E               	movf	(_i+1)^0,w,c
  1234   00070E  E107               	bnz	u261
  1235   000710  0E32               	movlw	50
  1236   000712  5C0D               	subwf	_i^0,w,c
  1237   000714  B0D8               	btfsc	status,0,c
  1238   000716  EF8F  F003         	goto	u261
  1239   00071A  EF91  F003         	goto	u260
  1240   00071E                     u261:
  1241   00071E  EF93  F003         	goto	l896
  1242   000722                     u260:
  1243   000722                     
  1244                           ;newmain.c: 27:             {;newmain.c: 28:                 count++;
  1245   000722  4A11               	infsnz	_count^0,f,c
  1246   000724  2A12               	incf	(_count+1)^0,f,c
  1247   000726                     l896:
  1248                           
  1249                           ;newmain.c: 29:                 i = 0;
  1250   000726  0E00               	movlw	0
  1251   000728  6E0E               	movwf	(_i+1)^0,c
  1252   00072A  0E00               	movlw	0
  1253   00072C  6E0D               	movwf	_i^0,c
  1254   00072E                     l900:
  1255                           
  1256                           ;newmain.c: 34:         display(ssd);
  1257   00072E  0E13               	movlw	low _ssd
  1258   000730  6E01               	movwf	display@data^0,c
  1259   000732  EC9F  F003         	call	_display	;wreg free
  1260   000736  EF03  F003         	goto	l874
  1261   00073A  EF00  F000         	goto	start
  1262   00073E                     __end_of_main:
  1263                           	callstack 0
  1264                           
  1265 ;; *************** function _init_ssd_control *****************
  1266 ;; Defined at:
  1267 ;;		line 3 in file "ssd_main.c"
  1268 ;; Parameters:    Size  Location     Type
  1269 ;;		None
  1270 ;; Auto vars:     Size  Location     Type
  1271 ;;		None
  1272 ;; Return value:  Size  Location     Type
  1273 ;;                  1    wreg      void 
  1274 ;; Registers used:
  1275 ;;		wreg, status,2, status,0
  1276 ;; Tracked objects:
  1277 ;;		On entry : 0/0
  1278 ;;		On exit  : 0/0
  1279 ;;		Unchanged: 0/0
  1280 ;; Data sizes:     COMRAM   BANK0   BANK1   BANK2   BANK3   BANK4   BANK5
  1281 ;;      Params:         0       0       0       0       0       0       0
  1282 ;;      Locals:         0       0       0       0       0       0       0
  1283 ;;      Temps:          0       0       0       0       0       0       0
  1284 ;;      Totals:         0       0       0       0       0       0       0
  1285 ;;Total ram usage:        0 bytes
  1286 ;; Hardware stack levels used: 1
  1287 ;; This function calls:
  1288 ;;		Nothing
  1289 ;; This function is called by:
  1290 ;;		_main
  1291 ;; This function uses a non-reentrant model
  1292 ;;
  1293                           
  1294                           	psect	text1
  1295   0008C0                     __ptext1:
  1296                           	callstack 0
  1297   0008C0                     _init_ssd_control:
  1298                           	callstack 30
  1299   0008C0                     
  1300                           ;ssd_main.c: 6:  TRISD = 0x00;
  1301   0008C0  6A95               	clrf	149,c	;volatile
  1302   0008C2                     
  1303                           ;ssd_main.c: 8:  TRISA = TRISA & 0xF0;
  1304   0008C2  5092               	movf	146,w,c	;volatile
  1305   0008C4  0BF0               	andlw	240
  1306   0008C6  6E92               	movwf	146,c	;volatile
  1307                           
  1308                           ;ssd_main.c: 11:  PORTA = PORTA & 0xF0;
  1309   0008C8  5080               	movf	128,w,c	;volatile
  1310   0008CA  0BF0               	andlw	240
  1311   0008CC  6E80               	movwf	128,c	;volatile
  1312                           
  1313                           ;ssd_main.c: 13:     TRISC = TRISC & 0x01;
  1314   0008CE  5094               	movf	148,w,c	;volatile
  1315   0008D0  0B01               	andlw	1
  1316   0008D2  6E94               	movwf	148,c	;volatile
  1317   0008D4  0012               	return		;funcret
  1318   0008D6                     __end_of_init_ssd_control:
  1319                           	callstack 0
  1320                           
  1321 ;; *************** function _display *****************
  1322 ;; Defined at:
  1323 ;;		line 18 in file "ssd_main.c"
  1324 ;; Parameters:    Size  Location     Type
  1325 ;;  data            1    0[COMRAM] PTR unsigned char 
  1326 ;;		 -> ssd(4), 
  1327 ;; Auto vars:     Size  Location     Type
  1328 ;;  wait            4    3[COMRAM] unsigned long 
  1329 ;;  digit           1    7[COMRAM] unsigned char 
  1330 ;;  data_bit        1    0        unsigned char 
  1331 ;; Return value:  Size  Location     Type
  1332 ;;                  1    wreg      void 
  1333 ;; Registers used:
  1334 ;;		wreg, fsr2l, fsr2h, status,2, status,0
  1335 ;; Tracked objects:
  1336 ;;		On entry : 0/0
  1337 ;;		On exit  : 0/0
  1338 ;;		Unchanged: 0/0
  1339 ;; Data sizes:     COMRAM   BANK0   BANK1   BANK2   BANK3   BANK4   BANK5
  1340 ;;      Params:         1       0       0       0       0       0       0
  1341 ;;      Locals:         5       0       0       0       0       0       0
  1342 ;;      Temps:          2       0       0       0       0       0       0
  1343 ;;      Totals:         8       0       0       0       0       0       0
  1344 ;;Total ram usage:        8 bytes
  1345 ;; Hardware stack levels used: 1
  1346 ;; This function calls:
  1347 ;;		Nothing
  1348 ;; This function is called by:
  1349 ;;		_main
  1350 ;; This function uses a non-reentrant model
  1351 ;;
  1352                           
  1353                           	psect	text2
  1354   00073E                     __ptext2:
  1355                           	callstack 0
  1356   00073E                     _display:
  1357                           	callstack 30
  1358   00073E                     
  1359                           ;ssd_main.c: 18: void display(unsigned char data[]);ssd_main.c: 19: {;ssd_main.c: 20:  u
      +                          nsigned long wait;;ssd_main.c: 21:  unsigned char data_bit;;ssd_main.c: 22:  unsigned ch
      +                          ar digit;;ssd_main.c: 24:  for (digit = 0; digit <= 4; digit++)
  1360   00073E  6A08               	clrf	display@digit^0,c
  1361   000740                     l822:
  1362                           
  1363                           ;ssd_main.c: 25:  {;ssd_main.c: 26:   PORTD = data[digit];
  1364   000740  5001               	movf	display@data^0,w,c
  1365   000742  2408               	addwf	display@digit^0,w,c
  1366   000744  6ED9               	movwf	fsr2l,c
  1367   000746  6ADA               	clrf	fsr2h,c
  1368   000748  50DF               	movf	indf2,w,c
  1369   00074A  6E83               	movwf	131,c	;volatile
  1370   00074C                     
  1371                           ;ssd_main.c: 27:   PORTA = (PORTA & 0xF0) | (0x01 << digit);
  1372   00074C  C008  F002         	movff	display@digit,??_display
  1373   000750  0E01               	movlw	1
  1374   000752  6E03               	movwf	(??_display+1)^0,c
  1375   000754  2A02               	incf	??_display^0,f,c
  1376   000756  EFAF  F003         	goto	u144
  1377   00075A                     u145:
  1378   00075A  90D8               	bcf	status,0,c
  1379   00075C  3603               	rlcf	(??_display+1)^0,f,c
  1380   00075E                     u144:
  1381   00075E  2E02               	decfsz	??_display^0,f,c
  1382   000760  EFAD  F003         	goto	u145
  1383   000764  5080               	movf	128,w,c	;volatile
  1384   000766  0BF0               	andlw	240
  1385   000768  1003               	iorwf	(??_display+1)^0,w,c
  1386   00076A  6E80               	movwf	128,c	;volatile
  1387   00076C                     
  1388                           ;ssd_main.c: 29:   for (wait = 1000; wait--; );
  1389   00076C  0EE8               	movlw	232
  1390   00076E  6E04               	movwf	display@wait^0,c
  1391   000770  0E03               	movlw	3
  1392   000772  6E05               	movwf	(display@wait+1)^0,c
  1393   000774  0E00               	movlw	0
  1394   000776  6E06               	movwf	(display@wait+2)^0,c
  1395   000778  0E00               	movlw	0
  1396   00077A  6E07               	movwf	(display@wait+3)^0,c
  1397   00077C                     l828:
  1398   00077C  0604               	decf	display@wait^0,f,c
  1399   00077E  0E00               	movlw	0
  1400   000780  5A05               	subwfb	(display@wait+1)^0,f,c
  1401   000782  5A06               	subwfb	(display@wait+2)^0,f,c
  1402   000784  5A07               	subwfb	(display@wait+3)^0,f,c
  1403   000786  2804               	incf	display@wait^0,w,c
  1404   000788  E10A               	bnz	u151
  1405   00078A  2805               	incf	(display@wait+1)^0,w,c
  1406   00078C  E108               	bnz	u151
  1407   00078E  2806               	incf	(display@wait+2)^0,w,c
  1408   000790  E106               	bnz	u151
  1409   000792  2807               	incf	(display@wait+3)^0,w,c
  1410   000794  A4D8               	btfss	status,2,c
  1411   000796  EFCF  F003         	goto	u151
  1412   00079A  EFD1  F003         	goto	u150
  1413   00079E                     u151:
  1414   00079E  EFBE  F003         	goto	l828
  1415   0007A2                     u150:
  1416   0007A2                     
  1417                           ;ssd_main.c: 30:  }
  1418   0007A2  2A08               	incf	display@digit^0,f,c
  1419   0007A4  0E04               	movlw	4
  1420   0007A6  6408               	cpfsgt	display@digit^0,c
  1421   0007A8  EFD8  F003         	goto	u161
  1422   0007AC  EFDA  F003         	goto	u160
  1423   0007B0                     u161:
  1424   0007B0  EFA0  F003         	goto	l822
  1425   0007B4                     u160:
  1426   0007B4  0012               	return		;funcret
  1427   0007B6                     __end_of_display:
  1428                           	callstack 0
  1429                           
  1430 ;; *************** function ___lwmod *****************
  1431 ;; Defined at:
  1432 ;;		line 7 in file "C:\Program Files\Microchip\xc8\v2.50\pic\sources\c99\common\lwmod.c"
  1433 ;; Parameters:    Size  Location     Type
  1434 ;;  dividend        2    7[COMRAM] unsigned int 
  1435 ;;  divisor         2    9[COMRAM] unsigned int 
  1436 ;; Auto vars:     Size  Location     Type
  1437 ;;  counter         1   11[COMRAM] unsigned char 
  1438 ;; Return value:  Size  Location     Type
  1439 ;;                  2    7[COMRAM] unsigned int 
  1440 ;; Registers used:
  1441 ;;		wreg, status,2, status,0
  1442 ;; Tracked objects:
  1443 ;;		On entry : 0/0
  1444 ;;		On exit  : 0/0
  1445 ;;		Unchanged: 0/0
  1446 ;; Data sizes:     COMRAM   BANK0   BANK1   BANK2   BANK3   BANK4   BANK5
  1447 ;;      Params:         4       0       0       0       0       0       0
  1448 ;;      Locals:         1       0       0       0       0       0       0
  1449 ;;      Temps:          0       0       0       0       0       0       0
  1450 ;;      Totals:         5       0       0       0       0       0       0
  1451 ;;Total ram usage:        5 bytes
  1452 ;; Hardware stack levels used: 1
  1453 ;; This function calls:
  1454 ;;		Nothing
  1455 ;; This function is called by:
  1456 ;;		_main
  1457 ;; This function uses a non-reentrant model
  1458 ;;
  1459                           
  1460                           	psect	text3
  1461   00082A                     __ptext3:
  1462                           	callstack 0
  1463   00082A                     ___lwmod:
  1464                           	callstack 30
  1465   00082A  500A               	movf	___lwmod@divisor^0,w,c
  1466   00082C  100B               	iorwf	(___lwmod@divisor+1)^0,w,c
  1467   00082E  B4D8               	btfsc	status,2,c
  1468   000830  EF1C  F004         	goto	u201
  1469   000834  EF1E  F004         	goto	u200
  1470   000838                     u201:
  1471   000838  EF42  F004         	goto	l554
  1472   00083C                     u200:
  1473   00083C  0E01               	movlw	1
  1474   00083E  6E0C               	movwf	___lwmod@counter^0,c
  1475   000840  EF26  F004         	goto	l862
  1476   000844                     l860:
  1477   000844  90D8               	bcf	status,0,c
  1478   000846  360A               	rlcf	___lwmod@divisor^0,f,c
  1479   000848  360B               	rlcf	(___lwmod@divisor+1)^0,f,c
  1480   00084A  2A0C               	incf	___lwmod@counter^0,f,c
  1481   00084C                     l862:
  1482   00084C  AE0B               	btfss	(___lwmod@divisor+1)^0,7,c
  1483   00084E  EF2B  F004         	goto	u211
  1484   000852  EF2D  F004         	goto	u210
  1485   000856                     u211:
  1486   000856  EF22  F004         	goto	l860
  1487   00085A                     u210:
  1488   00085A                     l864:
  1489   00085A  500A               	movf	___lwmod@divisor^0,w,c
  1490   00085C  5C08               	subwf	___lwmod@dividend^0,w,c
  1491   00085E  500B               	movf	(___lwmod@divisor+1)^0,w,c
  1492   000860  5809               	subwfb	(___lwmod@dividend+1)^0,w,c
  1493   000862  A0D8               	btfss	status,0,c
  1494   000864  EF36  F004         	goto	u221
  1495   000868  EF38  F004         	goto	u220
  1496   00086C                     u221:
  1497   00086C  EF3C  F004         	goto	l868
  1498   000870                     u220:
  1499   000870  500A               	movf	___lwmod@divisor^0,w,c
  1500   000872  5E08               	subwf	___lwmod@dividend^0,f,c
  1501   000874  500B               	movf	(___lwmod@divisor+1)^0,w,c
  1502   000876  5A09               	subwfb	(___lwmod@dividend+1)^0,f,c
  1503   000878                     l868:
  1504   000878  90D8               	bcf	status,0,c
  1505   00087A  320B               	rrcf	(___lwmod@divisor+1)^0,f,c
  1506   00087C  320A               	rrcf	___lwmod@divisor^0,f,c
  1507   00087E  2E0C               	decfsz	___lwmod@counter^0,f,c
  1508   000880  EF2D  F004         	goto	l864
  1509   000884                     l554:
  1510   000884  C008  F008         	movff	___lwmod@dividend,?___lwmod
  1511   000888  C009  F009         	movff	___lwmod@dividend+1,?___lwmod+1
  1512   00088C  0012               	return		;funcret
  1513   00088E                     __end_of___lwmod:
  1514                           	callstack 0
  1515                           
  1516 ;; *************** function ___lwdiv *****************
  1517 ;; Defined at:
  1518 ;;		line 7 in file "C:\Program Files\Microchip\xc8\v2.50\pic\sources\c99\common\lwdiv.c"
  1519 ;; Parameters:    Size  Location     Type
  1520 ;;  dividend        2    0[COMRAM] unsigned int 
  1521 ;;  divisor         2    2[COMRAM] unsigned int 
  1522 ;; Auto vars:     Size  Location     Type
  1523 ;;  quotient        2    4[COMRAM] unsigned int 
  1524 ;;  counter         1    6[COMRAM] unsigned char 
  1525 ;; Return value:  Size  Location     Type
  1526 ;;                  2    0[COMRAM] unsigned int 
  1527 ;; Registers used:
  1528 ;;		wreg, status,2, status,0
  1529 ;; Tracked objects:
  1530 ;;		On entry : 0/0
  1531 ;;		On exit  : 0/0
  1532 ;;		Unchanged: 0/0
  1533 ;; Data sizes:     COMRAM   BANK0   BANK1   BANK2   BANK3   BANK4   BANK5
  1534 ;;      Params:         4       0       0       0       0       0       0
  1535 ;;      Locals:         3       0       0       0       0       0       0
  1536 ;;      Temps:          0       0       0       0       0       0       0
  1537 ;;      Totals:         7       0       0       0       0       0       0
  1538 ;;Total ram usage:        7 bytes
  1539 ;; Hardware stack levels used: 1
  1540 ;; This function calls:
  1541 ;;		Nothing
  1542 ;; This function is called by:
  1543 ;;		_main
  1544 ;; This function uses a non-reentrant model
  1545 ;;
  1546                           
  1547                           	psect	text4
  1548   0007B6                     __ptext4:
  1549                           	callstack 0
  1550   0007B6                     ___lwdiv:
  1551                           	callstack 30
  1552   0007B6  0E00               	movlw	0
  1553   0007B8  6E06               	movwf	(___lwdiv@quotient+1)^0,c
  1554   0007BA  0E00               	movlw	0
  1555   0007BC  6E05               	movwf	___lwdiv@quotient^0,c
  1556   0007BE  5003               	movf	___lwdiv@divisor^0,w,c
  1557   0007C0  1004               	iorwf	(___lwdiv@divisor+1)^0,w,c
  1558   0007C2  B4D8               	btfsc	status,2,c
  1559   0007C4  EFE6  F003         	goto	u171
  1560   0007C8  EFE8  F003         	goto	u170
  1561   0007CC                     u171:
  1562   0007CC  EF10  F004         	goto	l544
  1563   0007D0                     u170:
  1564   0007D0  0E01               	movlw	1
  1565   0007D2  6E07               	movwf	___lwdiv@counter^0,c
  1566   0007D4  EFF0  F003         	goto	l842
  1567   0007D8                     l840:
  1568   0007D8  90D8               	bcf	status,0,c
  1569   0007DA  3603               	rlcf	___lwdiv@divisor^0,f,c
  1570   0007DC  3604               	rlcf	(___lwdiv@divisor+1)^0,f,c
  1571   0007DE  2A07               	incf	___lwdiv@counter^0,f,c
  1572   0007E0                     l842:
  1573   0007E0  AE04               	btfss	(___lwdiv@divisor+1)^0,7,c
  1574   0007E2  EFF5  F003         	goto	u181
  1575   0007E6  EFF7  F003         	goto	u180
  1576   0007EA                     u181:
  1577   0007EA  EFEC  F003         	goto	l840
  1578   0007EE                     u180:
  1579   0007EE                     l844:
  1580   0007EE  90D8               	bcf	status,0,c
  1581   0007F0  3605               	rlcf	___lwdiv@quotient^0,f,c
  1582   0007F2  3606               	rlcf	(___lwdiv@quotient+1)^0,f,c
  1583   0007F4  5003               	movf	___lwdiv@divisor^0,w,c
  1584   0007F6  5C01               	subwf	___lwdiv@dividend^0,w,c
  1585   0007F8  5004               	movf	(___lwdiv@divisor+1)^0,w,c
  1586   0007FA  5802               	subwfb	(___lwdiv@dividend+1)^0,w,c
  1587   0007FC  A0D8               	btfss	status,0,c
  1588   0007FE  EF03  F004         	goto	u191
  1589   000802  EF05  F004         	goto	u190
  1590   000806                     u191:
  1591   000806  EF0A  F004         	goto	l852
  1592   00080A                     u190:
  1593   00080A  5003               	movf	___lwdiv@divisor^0,w,c
  1594   00080C  5E01               	subwf	___lwdiv@dividend^0,f,c
  1595   00080E  5004               	movf	(___lwdiv@divisor+1)^0,w,c
  1596   000810  5A02               	subwfb	(___lwdiv@dividend+1)^0,f,c
  1597   000812  8005               	bsf	___lwdiv@quotient^0,0,c
  1598   000814                     l852:
  1599   000814  90D8               	bcf	status,0,c
  1600   000816  3204               	rrcf	(___lwdiv@divisor+1)^0,f,c
  1601   000818  3203               	rrcf	___lwdiv@divisor^0,f,c
  1602   00081A  2E07               	decfsz	___lwdiv@counter^0,f,c
  1603   00081C  EFF7  F003         	goto	l844
  1604   000820                     l544:
  1605   000820  C005  F001         	movff	___lwdiv@quotient,?___lwdiv
  1606   000824  C006  F002         	movff	___lwdiv@quotient+1,?___lwdiv+1
  1607   000828  0012               	return		;funcret
  1608   00082A                     __end_of___lwdiv:
  1609                           	callstack 0
  1610                           
  1611                           	psect	smallconst
  1612   000600                     __psmallconst:
  1613                           	callstack 0
  1614   000600  00                 	db	0
  1615   000601  00                 	db	0	; dummy byte at the end
  1616   000000                     __activetblptr  equ	0
  1617                           
  1618                           	psect	rparam
  1619   000001                     ___rparam_used  equ	1
  1620   000000                     ___param_bank   equ	0
  1621   000000                     __Lparam        equ	__Lrparam
  1622   000000                     __Hparam        equ	__Hrparam
  1623                           
  1624                           	psect	idloc
  1625                           
  1626                           ;Config register IDLOC0 @ 0x200000
  1627                           ;	unspecified, using default values
  1628   200000                     	org	2097152
  1629   200000  FF                 	db	255
  1630                           
  1631                           ;Config register IDLOC1 @ 0x200001
  1632                           ;	unspecified, using default values
  1633   200001                     	org	2097153
  1634   200001  FF                 	db	255
  1635                           
  1636                           ;Config register IDLOC2 @ 0x200002
  1637                           ;	unspecified, using default values
  1638   200002                     	org	2097154
  1639   200002  FF                 	db	255
  1640                           
  1641                           ;Config register IDLOC3 @ 0x200003
  1642                           ;	unspecified, using default values
  1643   200003                     	org	2097155
  1644   200003  FF                 	db	255
  1645                           
  1646                           ;Config register IDLOC4 @ 0x200004
  1647                           ;	unspecified, using default values
  1648   200004                     	org	2097156
  1649   200004  FF                 	db	255
  1650                           
  1651                           ;Config register IDLOC5 @ 0x200005
  1652                           ;	unspecified, using default values
  1653   200005                     	org	2097157
  1654   200005  FF                 	db	255
  1655                           
  1656                           ;Config register IDLOC6 @ 0x200006
  1657                           ;	unspecified, using default values
  1658   200006                     	org	2097158
  1659   200006  FF                 	db	255
  1660                           
  1661                           ;Config register IDLOC7 @ 0x200007
  1662                           ;	unspecified, using default values
  1663   200007                     	org	2097159
  1664   200007  FF                 	db	255
  1665                           
  1666                           	psect	config
  1667                           
  1668                           ; Padding undefined space
  1669   300000                     	org	3145728
  1670   300000  FF                 	db	255
  1671                           
  1672                           ;Config register CONFIG1H @ 0x300001
  1673                           ;	unspecified, using default values
  1674                           ;	Oscillator Selection bits
  1675                           ;	OSC = 0x7, unprogrammed default
  1676                           ;	Fail-Safe Clock Monitor Enable bit
  1677                           ;	FCMEN = 0x0, unprogrammed default
  1678                           ;	Internal/External Oscillator Switchover bit
  1679                           ;	IESO = 0x0, unprogrammed default
  1680   300001                     	org	3145729
  1681   300001  07                 	db	7
  1682                           
  1683                           ;Config register CONFIG2L @ 0x300002
  1684                           ;	unspecified, using default values
  1685                           ;	Power-up Timer Enable bit
  1686                           ;	PWRT = 0x1, unprogrammed default
  1687                           ;	Brown-out Reset Enable bits
  1688                           ;	BOREN = 0x3, unprogrammed default
  1689                           ;	Brown-out Reset Voltage bits
  1690                           ;	BORV = 0x3, unprogrammed default
  1691   300002                     	org	3145730
  1692   300002  1F                 	db	31
  1693                           
  1694                           ;Config register CONFIG2H @ 0x300003
  1695                           ;	unspecified, using default values
  1696                           ;	Watchdog Timer Enable bit
  1697                           ;	WDT = 0x1, unprogrammed default
  1698                           ;	Watchdog Timer Postscale Select bits
  1699                           ;	WDTPS = 0xF, unprogrammed default
  1700   300003                     	org	3145731
  1701   300003  1F                 	db	31
  1702                           
  1703                           ; Padding undefined space
  1704   300004                     	org	3145732
  1705   300004  FF                 	db	255
  1706                           
  1707                           ;Config register CONFIG3H @ 0x300005
  1708                           ;	unspecified, using default values
  1709                           ;	PORTB A/D Enable bit
  1710                           ;	PBADEN = 0x1, unprogrammed default
  1711                           ;	Low-Power Timer 1 Oscillator Enable bit
  1712                           ;	LPT1OSC = 0x0, unprogrammed default
  1713                           ;	MCLR Pin Enable bit
  1714                           ;	MCLRE = 0x1, unprogrammed default
  1715   300005                     	org	3145733
  1716   300005  82                 	db	130
  1717                           
  1718                           ;Config register CONFIG4L @ 0x300006
  1719                           ;	unspecified, using default values
  1720                           ;	Stack Full/Underflow Reset Enable bit
  1721                           ;	STVREN = 0x1, unprogrammed default
  1722                           ;	Single-Supply ICSP Enable bit
  1723                           ;	LVP = 0x1, unprogrammed default
  1724                           ;	Boot Block Size Select bit
  1725                           ;	BBSIZ = 0x0, unprogrammed default
  1726                           ;	Extended Instruction Set Enable bit
  1727                           ;	XINST = 0x0, unprogrammed default
  1728                           ;	Background Debugger Enable bit
  1729                           ;	DEBUG = 0x1, unprogrammed default
  1730   300006                     	org	3145734
  1731   300006  85                 	db	133
  1732                           
  1733                           ; Padding undefined space
  1734   300007                     	org	3145735
  1735   300007  FF                 	db	255
  1736                           
  1737                           ;Config register CONFIG5L @ 0x300008
  1738                           ;	unspecified, using default values
  1739                           ;	Code Protection bit
  1740                           ;	CP0 = 0x1, unprogrammed default
  1741                           ;	Code Protection bit
  1742                           ;	CP1 = 0x1, unprogrammed default
  1743                           ;	Code Protection bit
  1744                           ;	CP2 = 0x1, unprogrammed default
  1745                           ;	Code Protection bit
  1746                           ;	CP3 = 0x1, unprogrammed default
  1747   300008                     	org	3145736
  1748   300008  0F                 	db	15
  1749                           
  1750                           ;Config register CONFIG5H @ 0x300009
  1751                           ;	unspecified, using default values
  1752                           ;	Boot Block Code Protection bit
  1753                           ;	CPB = 0x1, unprogrammed default
  1754                           ;	Data EEPROM Code Protection bit
  1755                           ;	CPD = 0x1, unprogrammed default
  1756   300009                     	org	3145737
  1757   300009  C0                 	db	192
  1758                           
  1759                           ;Config register CONFIG6L @ 0x30000A
  1760                           ;	unspecified, using default values
  1761                           ;	Write Protection bit
  1762                           ;	WRT0 = 0x1, unprogrammed default
  1763                           ;	Write Protection bit
  1764                           ;	WRT1 = 0x1, unprogrammed default
  1765                           ;	Write Protection bit
  1766                           ;	WRT2 = 0x1, unprogrammed default
  1767                           ;	Write Protection bit
  1768                           ;	WRT3 = 0x1, unprogrammed default
  1769   30000A                     	org	3145738
  1770   30000A  0F                 	db	15
  1771                           
  1772                           ;Config register CONFIG6H @ 0x30000B
  1773                           ;	unspecified, using default values
  1774                           ;	Configuration Register Write Protection bit
  1775                           ;	WRTC = 0x1, unprogrammed default
  1776                           ;	Boot Block Write Protection bit
  1777                           ;	WRTB = 0x1, unprogrammed default
  1778                           ;	Data EEPROM Write Protection bit
  1779                           ;	WRTD = 0x1, unprogrammed default
  1780   30000B                     	org	3145739
  1781   30000B  E0                 	db	224
  1782                           
  1783                           ;Config register CONFIG7L @ 0x30000C
  1784                           ;	unspecified, using default values
  1785                           ;	Table Read Protection bit
  1786                           ;	EBTR0 = 0x1, unprogrammed default
  1787                           ;	Table Read Protection bit
  1788                           ;	EBTR1 = 0x1, unprogrammed default
  1789                           ;	Table Read Protection bit
  1790                           ;	EBTR2 = 0x1, unprogrammed default
  1791                           ;	Table Read Protection bit
  1792                           ;	EBTR3 = 0x1, unprogrammed default
  1793   30000C                     	org	3145740
  1794   30000C  0F                 	db	15
  1795                           
  1796                           ;Config register CONFIG7H @ 0x30000D
  1797                           ;	unspecified, using default values
  1798                           ;	Boot Block Table Read Protection bit
  1799                           ;	EBTRB = 0x1, unprogrammed default
  1800   30000D                     	org	3145741
  1801   30000D  40                 	db	64
  1802                           tosu	equ	0xFFF
  1803                           tosh	equ	0xFFE
  1804                           tosl	equ	0xFFD
  1805                           stkptr	equ	0xFFC
  1806                           pclatu	equ	0xFFB
  1807                           pclath	equ	0xFFA
  1808                           pcl	equ	0xFF9
  1809                           tblptru	equ	0xFF8
  1810                           tblptrh	equ	0xFF7
  1811                           tblptrl	equ	0xFF6
  1812                           tablat	equ	0xFF5
  1813                           prodh	equ	0xFF4
  1814                           prodl	equ	0xFF3
  1815                           indf0	equ	0xFEF
  1816                           postinc0	equ	0xFEE
  1817                           postdec0	equ	0xFED
  1818                           preinc0	equ	0xFEC
  1819                           plusw0	equ	0xFEB
  1820                           fsr0h	equ	0xFEA
  1821                           fsr0l	equ	0xFE9
  1822                           wreg	equ	0xFE8
  1823                           indf1	equ	0xFE7
  1824                           postinc1	equ	0xFE6
  1825                           postdec1	equ	0xFE5
  1826                           preinc1	equ	0xFE4
  1827                           plusw1	equ	0xFE3
  1828                           fsr1h	equ	0xFE2
  1829                           fsr1l	equ	0xFE1
  1830                           bsr	equ	0xFE0
  1831                           indf2	equ	0xFDF
  1832                           postinc2	equ	0xFDE
  1833                           postdec2	equ	0xFDD
  1834                           preinc2	equ	0xFDC
  1835                           plusw2	equ	0xFDB
  1836                           fsr2h	equ	0xFDA
  1837                           fsr2l	equ	0xFD9
  1838                           status	equ	0xFD8

Data Sizes:
    Strings     0
    Constant    0
    Data        10
    BSS         10
    Persistent  0
    Stack       0

Auto Spaces:
    Space          Size  Autos    Used
    COMRAM           95     12      32
    BANK0           160      0       0
    BANK1           256      0       0
    BANK2           256      0       0
    BANK3           256      0       0
    BANK4           256      0       0
    BANK5           256      0       0

Pointer List with Targets:

    display@data	PTR unsigned char  size(1) Largest target is 4
		 -> ssd(COMRAM[4]), 


Critical Paths under _main in COMRAM

    _main->___lwmod
    ___lwmod->___lwdiv

Critical Paths under _main in BANK0

    None.

Critical Paths under _main in BANK1

    None.

Critical Paths under _main in BANK2

    None.

Critical Paths under _main in BANK3

    None.

Critical Paths under _main in BANK4

    None.

Critical Paths under _main in BANK5

    None.

Call Graph Tables:

 ---------------------------------------------------------------------------------
 (Depth) Function   	        Calls       Base Space   Used Autos Params    Refs
 ---------------------------------------------------------------------------------
 (0) _main                                                 0     0      0     471
                            ___lwdiv
                            ___lwmod
                            _display
                   _init_ssd_control
 ---------------------------------------------------------------------------------
 (1) _init_ssd_control                                     0     0      0       0
 ---------------------------------------------------------------------------------
 (1) _display                                              9     8      1     136
                                              0 COMRAM     8     7      1
 ---------------------------------------------------------------------------------
 (1) ___lwmod                                              5     1      4     167
                                              7 COMRAM     5     1      4
                            ___lwdiv (ARG)
 ---------------------------------------------------------------------------------
 (1) ___lwdiv                                              7     3      4     168
                                              0 COMRAM     7     3      4
 ---------------------------------------------------------------------------------
 Estimated maximum stack depth 1
 ---------------------------------------------------------------------------------

 Call Graph Graphs:

 _main (ROOT)
   ___lwdiv
   ___lwmod
     ___lwdiv (ARG)
   _display
   _init_ssd_control

Address spaces:
Name               Size   Autos  Total    Usage
BIGRAM            1535      0       0      0.0%
BITBIGSFRll        640      0       0      0.0%
BITBANK5           256      0       0      0.0%
BANK5              256      0       0      0.0%
BITBANK4           256      0       0      0.0%
BANK4              256      0       0      0.0%
BITBANK3           256      0       0      0.0%
BANK3              256      0       0      0.0%
BITBANK2           256      0       0      0.0%
BANK2              256      0       0      0.0%
BITBANK1           256      0       0      0.0%
BANK1              256      0       0      0.0%
BITBANK0           160      0       0      0.0%
BANK0              160      0       0      0.0%
BITBIGSFRh         125      0       0      0.0%
BITCOMRAM           95      0       0      0.0%
COMRAM              95     12      32     33.7%
BITBIGSFRlh          1      0       0      0.0%
STACK                0      0       0      0.0%
DATA                 0      0      32      0.0%


Microchip Technology PIC18 Macro Assembler V2.50 build 20240725155939 
Symbol Table                                                                                   Sat Dec 28 09:50:58 2024

                       _i 000D                        l50 07B4                        l42 08D4  
                     l551 0828                       l544 0820                       l561 088C  
                     l554 0884                       l900 072E                       l830 07A2  
                     l822 0740                       l726 08C0                       l840 07D8  
                     l832 07A4                       l824 074C                       l816 073E  
                     l728 08C2                       l850 0812                       l842 07E0  
                     l834 07B6                       l826 076C                       l852 0814  
                     l844 07EE                       l836 07BE                       l860 0844  
                     l828 077C                       l854 081A                       l846 07F4  
                     l838 07D0                       l870 087E                       l862 084C  
                     l848 080A                       l864 085A                       l856 082A  
                     l880 068E                       l872 0602                       l866 0870  
                     l858 083C                       l890 06F6                       l882 06C2  
                     l874 0606                       l868 0878                       l892 070C  
                     l884 06D0                       l876 0626                       l894 0722  
                     l886 06D4                       l878 065A                       l896 0726  
                     l888 06EA                       _RC0 7C10                       u200 083C  
                     u201 0838                       u210 085A                       u211 0856  
                     u220 0870                       u221 086C                       u150 07A2  
                     u230 06D0                       u151 079E                       u231 06CC  
                     u160 07B4                       u144 075E                       u240 06EA  
                     u161 07B0                       u145 075A                       u241 06E6  
                     u170 07D0                       u250 070C                       u171 07CC  
                     u251 0708                       u180 07EE                       u260 0722  
                     u181 07EA                       u261 071E                       u190 080A  
                     u191 0806                       _ssd 0013                       wreg 0FE8  
             display@data 0001               display@wait 0004                      _main 0602  
                    fsr2h 0FDA                      indf2 0FDF                      fsr1l 0FE1  
                    fsr2l 0FD9                      start 0000              ___param_bank 0000  
                   ?_main 0001           __end_of___lwdiv 082A           __end_of___lwmod 088E  
                   _PORTA 0F80                     _PORTD 0F83                     _TRISA 0F92  
                   _TRISC 0F94                     _TRISD 0F95              display@digit 0008  
         __end_of_display 07B6                     _delay 000F                     _digit 0017  
                   _count 0011                     tablat 0FF5                     status 0FD8  
         __initialization 088E              __end_of_main 073E         ?_init_ssd_control 0001  
                  ??_main 000D             __activetblptr 0000        ??_init_ssd_control 0001  
               ??___lwdiv 0005                 ??___lwmod 000C                    clear_0 08B4  
                  isa$std 0001                 ??_display 0002              __pdataCOMRAM 0017  
            __mediumconst 0000                    tblptrh 0FF7                    tblptrl 0FF6  
                  tblptru 0FF8                __accesstop 0060   __end_of__initialization 08BA  
           ___rparam_used 0001            __pcstackCOMRAM 0001                   __Hparam 0000  
                 __Lparam 0000                   ___lwdiv 07B6                   ___lwmod 082A  
            __psmallconst 0600                   __pcinit 088E                   __ramtop 0600  
                 __ptext0 0602                   __ptext1 08C0                   __ptext2 073E  
                 __ptext3 082A                   __ptext4 07B6                   _display 073E  
    end_of_initialization 08BA                   postdec1 0FE5                   postinc0 0FEE  
           __pidataCOMRAM 08D6       start_initialization 088E               __pbssCOMRAM 000D  
        _init_ssd_control 08C0          ___lwdiv@dividend 0001                  ?___lwdiv 0001  
                ?___lwmod 0008                  ?_display 0001               __smallconst 0600  
        ___lwdiv@quotient 0005                 copy_data0 08A2                  __Hrparam 0000  
                __Lrparam 0000           ___lwdiv@divisor 0003           ___lwdiv@counter 0007  
                isa$xinst 0000  __end_of_init_ssd_control 08D6          ___lwmod@dividend 0008  
         ___lwmod@divisor 000A           ___lwmod@counter 000C  
